
BSMCMaster.elf:     file format elf32-littlearm

Sections:
Idx Name          Size      VMA       LMA       File off  Algn
  0 .text         000017a0  00000000  00000000  00010000  2**2
                  CONTENTS, ALLOC, LOAD, READONLY, CODE
  1 .relocate     00000000  20000000  20000000  000117a0  2**0
                  CONTENTS
  2 .bss          00000268  20000000  20000000  00020000  2**2
                  ALLOC
  3 .stack        00002000  20000268  20000268  00020000  2**0
                  ALLOC
  4 .ARM.attributes 00000028  00000000  00000000  000117a0  2**0
                  CONTENTS, READONLY
  5 .comment      00000059  00000000  00000000  000117c8  2**0
                  CONTENTS, READONLY
  6 .debug_info   0002430f  00000000  00000000  00011821  2**0
                  CONTENTS, READONLY, DEBUGGING
  7 .debug_abbrev 00002b8d  00000000  00000000  00035b30  2**0
                  CONTENTS, READONLY, DEBUGGING
  8 .debug_loc    0000dace  00000000  00000000  000386bd  2**0
                  CONTENTS, READONLY, DEBUGGING
  9 .debug_aranges 00000b08  00000000  00000000  0004618b  2**0
                  CONTENTS, READONLY, DEBUGGING
 10 .debug_ranges 00000bf0  00000000  00000000  00046c93  2**0
                  CONTENTS, READONLY, DEBUGGING
 11 .debug_macro  00018a9a  00000000  00000000  00047883  2**0
                  CONTENTS, READONLY, DEBUGGING
 12 .debug_line   0000ea6d  00000000  00000000  0006031d  2**0
                  CONTENTS, READONLY, DEBUGGING
 13 .debug_str    0008862a  00000000  00000000  0006ed8a  2**0
                  CONTENTS, READONLY, DEBUGGING
 14 .debug_frame  00001d1c  00000000  00000000  000f73b4  2**2
                  CONTENTS, READONLY, DEBUGGING

Disassembly of section .text:

00000000 <exception_table>:
       0:	68 22 00 20 25 01 00 00 21 01 00 00 21 01 00 00     h". %...!...!...
	...
      2c:	21 01 00 00 00 00 00 00 00 00 00 00 21 01 00 00     !...........!...
      3c:	21 01 00 00 21 01 00 00 21 01 00 00 21 01 00 00     !...!...!...!...
      4c:	19 10 00 00 21 01 00 00 e1 0e 00 00 21 01 00 00     ....!.......!...
      5c:	21 01 00 00 21 01 00 00 3d 13 00 00 21 01 00 00     !...!...=...!...
      6c:	21 01 00 00 51 13 00 00 21 01 00 00 21 01 00 00     !...Q...!...!...
      7c:	21 01 00 00 21 01 00 00 21 01 00 00 21 01 00 00     !...!...!...!...
      8c:	21 01 00 00 21 01 00 00 21 01 00 00 21 01 00 00     !...!...!...!...
      9c:	21 01 00 00 21 01 00 00 21 01 00 00 21 01 00 00     !...!...!...!...
      ac:	21 01 00 00 00 00 00 00                             !.......

000000b4 <__do_global_dtors_aux>:
      b4:	b510      	push	{r4, lr}
      b6:	4c06      	ldr	r4, [pc, #24]	; (d0 <__do_global_dtors_aux+0x1c>)
      b8:	7823      	ldrb	r3, [r4, #0]
      ba:	2b00      	cmp	r3, #0
      bc:	d107      	bne.n	ce <__do_global_dtors_aux+0x1a>
      be:	4b05      	ldr	r3, [pc, #20]	; (d4 <__do_global_dtors_aux+0x20>)
      c0:	2b00      	cmp	r3, #0
      c2:	d002      	beq.n	ca <__do_global_dtors_aux+0x16>
      c4:	4804      	ldr	r0, [pc, #16]	; (d8 <__do_global_dtors_aux+0x24>)
      c6:	e000      	b.n	ca <__do_global_dtors_aux+0x16>
      c8:	bf00      	nop
      ca:	2301      	movs	r3, #1
      cc:	7023      	strb	r3, [r4, #0]
      ce:	bd10      	pop	{r4, pc}
      d0:	20000000 	.word	0x20000000
      d4:	00000000 	.word	0x00000000
      d8:	000017a0 	.word	0x000017a0

000000dc <frame_dummy>:
      dc:	4b08      	ldr	r3, [pc, #32]	; (100 <frame_dummy+0x24>)
      de:	b510      	push	{r4, lr}
      e0:	2b00      	cmp	r3, #0
      e2:	d003      	beq.n	ec <frame_dummy+0x10>
      e4:	4907      	ldr	r1, [pc, #28]	; (104 <frame_dummy+0x28>)
      e6:	4808      	ldr	r0, [pc, #32]	; (108 <frame_dummy+0x2c>)
      e8:	e000      	b.n	ec <frame_dummy+0x10>
      ea:	bf00      	nop
      ec:	4807      	ldr	r0, [pc, #28]	; (10c <frame_dummy+0x30>)
      ee:	6803      	ldr	r3, [r0, #0]
      f0:	2b00      	cmp	r3, #0
      f2:	d100      	bne.n	f6 <frame_dummy+0x1a>
      f4:	bd10      	pop	{r4, pc}
      f6:	4b06      	ldr	r3, [pc, #24]	; (110 <frame_dummy+0x34>)
      f8:	2b00      	cmp	r3, #0
      fa:	d0fb      	beq.n	f4 <frame_dummy+0x18>
      fc:	4798      	blx	r3
      fe:	e7f9      	b.n	f4 <frame_dummy+0x18>
     100:	00000000 	.word	0x00000000
     104:	20000004 	.word	0x20000004
     108:	000017a0 	.word	0x000017a0
     10c:	000017a0 	.word	0x000017a0
     110:	00000000 	.word	0x00000000

00000114 <atmel_start_init>:
     114:	b510      	push	{r4, lr}
     116:	4b01      	ldr	r3, [pc, #4]	; (11c <atmel_start_init+0x8>)
     118:	4798      	blx	r3
     11a:	bd10      	pop	{r4, pc}
     11c:	00000395 	.word	0x00000395

00000120 <Dummy_Handler>:
     120:	e7fe      	b.n	120 <Dummy_Handler>
	...

00000124 <Reset_Handler>:
     124:	b5f8      	push	{r3, r4, r5, r6, r7, lr}
     126:	4a23      	ldr	r2, [pc, #140]	; (1b4 <Reset_Handler+0x90>)
     128:	4b23      	ldr	r3, [pc, #140]	; (1b8 <Reset_Handler+0x94>)
     12a:	429a      	cmp	r2, r3
     12c:	d009      	beq.n	142 <Reset_Handler+0x1e>
     12e:	4b22      	ldr	r3, [pc, #136]	; (1b8 <Reset_Handler+0x94>)
     130:	4a20      	ldr	r2, [pc, #128]	; (1b4 <Reset_Handler+0x90>)
     132:	e003      	b.n	13c <Reset_Handler+0x18>
     134:	6811      	ldr	r1, [r2, #0]
     136:	6019      	str	r1, [r3, #0]
     138:	3304      	adds	r3, #4
     13a:	3204      	adds	r2, #4
     13c:	491f      	ldr	r1, [pc, #124]	; (1bc <Reset_Handler+0x98>)
     13e:	428b      	cmp	r3, r1
     140:	d3f8      	bcc.n	134 <Reset_Handler+0x10>
     142:	4b1f      	ldr	r3, [pc, #124]	; (1c0 <Reset_Handler+0x9c>)
     144:	e002      	b.n	14c <Reset_Handler+0x28>
     146:	2200      	movs	r2, #0
     148:	601a      	str	r2, [r3, #0]
     14a:	3304      	adds	r3, #4
     14c:	4a1d      	ldr	r2, [pc, #116]	; (1c4 <Reset_Handler+0xa0>)
     14e:	4293      	cmp	r3, r2
     150:	d3f9      	bcc.n	146 <Reset_Handler+0x22>
     152:	4a1d      	ldr	r2, [pc, #116]	; (1c8 <Reset_Handler+0xa4>)
     154:	21ff      	movs	r1, #255	; 0xff
     156:	4b1d      	ldr	r3, [pc, #116]	; (1cc <Reset_Handler+0xa8>)
     158:	438b      	bics	r3, r1
     15a:	6093      	str	r3, [r2, #8]
     15c:	39fd      	subs	r1, #253	; 0xfd
     15e:	2390      	movs	r3, #144	; 0x90
     160:	005b      	lsls	r3, r3, #1
     162:	4a1b      	ldr	r2, [pc, #108]	; (1d0 <Reset_Handler+0xac>)
     164:	50d1      	str	r1, [r2, r3]
     166:	4a1b      	ldr	r2, [pc, #108]	; (1d4 <Reset_Handler+0xb0>)
     168:	78d3      	ldrb	r3, [r2, #3]
     16a:	2503      	movs	r5, #3
     16c:	43ab      	bics	r3, r5
     16e:	2402      	movs	r4, #2
     170:	4323      	orrs	r3, r4
     172:	70d3      	strb	r3, [r2, #3]
     174:	78d3      	ldrb	r3, [r2, #3]
     176:	270c      	movs	r7, #12
     178:	43bb      	bics	r3, r7
     17a:	2608      	movs	r6, #8
     17c:	4333      	orrs	r3, r6
     17e:	70d3      	strb	r3, [r2, #3]
     180:	4b15      	ldr	r3, [pc, #84]	; (1d8 <Reset_Handler+0xb4>)
     182:	7b98      	ldrb	r0, [r3, #14]
     184:	2230      	movs	r2, #48	; 0x30
     186:	4390      	bics	r0, r2
     188:	2220      	movs	r2, #32
     18a:	4310      	orrs	r0, r2
     18c:	7398      	strb	r0, [r3, #14]
     18e:	7b99      	ldrb	r1, [r3, #14]
     190:	43b9      	bics	r1, r7
     192:	4331      	orrs	r1, r6
     194:	7399      	strb	r1, [r3, #14]
     196:	7b9a      	ldrb	r2, [r3, #14]
     198:	43aa      	bics	r2, r5
     19a:	4322      	orrs	r2, r4
     19c:	739a      	strb	r2, [r3, #14]
     19e:	4a0f      	ldr	r2, [pc, #60]	; (1dc <Reset_Handler+0xb8>)
     1a0:	6851      	ldr	r1, [r2, #4]
     1a2:	2380      	movs	r3, #128	; 0x80
     1a4:	430b      	orrs	r3, r1
     1a6:	6053      	str	r3, [r2, #4]
     1a8:	4b0d      	ldr	r3, [pc, #52]	; (1e0 <Reset_Handler+0xbc>)
     1aa:	4798      	blx	r3
     1ac:	4b0d      	ldr	r3, [pc, #52]	; (1e4 <Reset_Handler+0xc0>)
     1ae:	4798      	blx	r3
     1b0:	e7fe      	b.n	1b0 <Reset_Handler+0x8c>
     1b2:	46c0      	nop			; (mov r8, r8)
     1b4:	000017a0 	.word	0x000017a0
     1b8:	20000000 	.word	0x20000000
     1bc:	20000000 	.word	0x20000000
     1c0:	20000000 	.word	0x20000000
     1c4:	20000268 	.word	0x20000268
     1c8:	e000ed00 	.word	0xe000ed00
     1cc:	00000000 	.word	0x00000000
     1d0:	41007000 	.word	0x41007000
     1d4:	41005000 	.word	0x41005000
     1d8:	41004800 	.word	0x41004800
     1dc:	41004000 	.word	0x41004000
     1e0:	000015d5 	.word	0x000015d5
     1e4:	000015a9 	.word	0x000015a9

000001e8 <TIMER_init>:
     1e8:	b510      	push	{r4, lr}
     1ea:	4a08      	ldr	r2, [pc, #32]	; (20c <TIMER_init+0x24>)
     1ec:	6993      	ldr	r3, [r2, #24]
     1ee:	2120      	movs	r1, #32
     1f0:	430b      	orrs	r3, r1
     1f2:	6193      	str	r3, [r2, #24]
     1f4:	4a06      	ldr	r2, [pc, #24]	; (210 <TIMER_init+0x28>)
     1f6:	4b07      	ldr	r3, [pc, #28]	; (214 <TIMER_init+0x2c>)
     1f8:	805a      	strh	r2, [r3, #2]
     1fa:	4b07      	ldr	r3, [pc, #28]	; (218 <TIMER_init+0x30>)
     1fc:	4798      	blx	r3
     1fe:	0002      	movs	r2, r0
     200:	4906      	ldr	r1, [pc, #24]	; (21c <TIMER_init+0x34>)
     202:	4807      	ldr	r0, [pc, #28]	; (220 <TIMER_init+0x38>)
     204:	4b07      	ldr	r3, [pc, #28]	; (224 <TIMER_init+0x3c>)
     206:	4798      	blx	r3
     208:	bd10      	pop	{r4, pc}
     20a:	46c0      	nop			; (mov r8, r8)
     20c:	40000400 	.word	0x40000400
     210:	00004004 	.word	0x00004004
     214:	40000c00 	.word	0x40000c00
     218:	00001015 	.word	0x00001015
     21c:	40001400 	.word	0x40001400
     220:	20000190 	.word	0x20000190
     224:	000006a1 	.word	0x000006a1

00000228 <FLASH_CLOCK_init>:
     228:	4a02      	ldr	r2, [pc, #8]	; (234 <FLASH_CLOCK_init+0xc>)
     22a:	69d3      	ldr	r3, [r2, #28]
     22c:	2104      	movs	r1, #4
     22e:	430b      	orrs	r3, r1
     230:	61d3      	str	r3, [r2, #28]
     232:	4770      	bx	lr
     234:	40000400 	.word	0x40000400

00000238 <FLASH_init>:
     238:	b510      	push	{r4, lr}
     23a:	4b03      	ldr	r3, [pc, #12]	; (248 <FLASH_init+0x10>)
     23c:	4798      	blx	r3
     23e:	4903      	ldr	r1, [pc, #12]	; (24c <FLASH_init+0x14>)
     240:	4803      	ldr	r0, [pc, #12]	; (250 <FLASH_init+0x18>)
     242:	4b04      	ldr	r3, [pc, #16]	; (254 <FLASH_init+0x1c>)
     244:	4798      	blx	r3
     246:	bd10      	pop	{r4, pc}
     248:	00000229 	.word	0x00000229
     24c:	41004000 	.word	0x41004000
     250:	200001ac 	.word	0x200001ac
     254:	00000421 	.word	0x00000421

00000258 <serial_knx_CLOCK_init>:
     258:	4a04      	ldr	r2, [pc, #16]	; (26c <serial_knx_CLOCK_init+0x14>)
     25a:	6a13      	ldr	r3, [r2, #32]
     25c:	2104      	movs	r1, #4
     25e:	430b      	orrs	r3, r1
     260:	6213      	str	r3, [r2, #32]
     262:	4a03      	ldr	r2, [pc, #12]	; (270 <serial_knx_CLOCK_init+0x18>)
     264:	4b03      	ldr	r3, [pc, #12]	; (274 <serial_knx_CLOCK_init+0x1c>)
     266:	805a      	strh	r2, [r3, #2]
     268:	4770      	bx	lr
     26a:	46c0      	nop			; (mov r8, r8)
     26c:	40000400 	.word	0x40000400
     270:	00004214 	.word	0x00004214
     274:	40000c00 	.word	0x40000c00

00000278 <serial_knx_PORT_init>:
     278:	b530      	push	{r4, r5, lr}
     27a:	4b0f      	ldr	r3, [pc, #60]	; (2b8 <serial_knx_PORT_init+0x40>)
     27c:	2244      	movs	r2, #68	; 0x44
     27e:	5c99      	ldrb	r1, [r3, r2]
     280:	2501      	movs	r5, #1
     282:	43a9      	bics	r1, r5
     284:	2401      	movs	r4, #1
     286:	4321      	orrs	r1, r4
     288:	b2c9      	uxtb	r1, r1
     28a:	5499      	strb	r1, [r3, r2]
     28c:	2032      	movs	r0, #50	; 0x32
     28e:	5c19      	ldrb	r1, [r3, r0]
     290:	3a35      	subs	r2, #53	; 0x35
     292:	4391      	bics	r1, r2
     294:	2203      	movs	r2, #3
     296:	4311      	orrs	r1, r2
     298:	b2c9      	uxtb	r1, r1
     29a:	5419      	strb	r1, [r3, r0]
     29c:	2145      	movs	r1, #69	; 0x45
     29e:	5c5a      	ldrb	r2, [r3, r1]
     2a0:	43aa      	bics	r2, r5
     2a2:	4322      	orrs	r2, r4
     2a4:	b2d2      	uxtb	r2, r2
     2a6:	545a      	strb	r2, [r3, r1]
     2a8:	5c1a      	ldrb	r2, [r3, r0]
     2aa:	3936      	subs	r1, #54	; 0x36
     2ac:	400a      	ands	r2, r1
     2ae:	2130      	movs	r1, #48	; 0x30
     2b0:	430a      	orrs	r2, r1
     2b2:	b2d2      	uxtb	r2, r2
     2b4:	541a      	strb	r2, [r3, r0]
     2b6:	bd30      	pop	{r4, r5, pc}
     2b8:	41004400 	.word	0x41004400

000002bc <serial_knx_init>:
     2bc:	b510      	push	{r4, lr}
     2be:	b082      	sub	sp, #8
     2c0:	4b06      	ldr	r3, [pc, #24]	; (2dc <serial_knx_init+0x20>)
     2c2:	4798      	blx	r3
     2c4:	2300      	movs	r3, #0
     2c6:	9300      	str	r3, [sp, #0]
     2c8:	3310      	adds	r3, #16
     2ca:	4a05      	ldr	r2, [pc, #20]	; (2e0 <serial_knx_init+0x24>)
     2cc:	4905      	ldr	r1, [pc, #20]	; (2e4 <serial_knx_init+0x28>)
     2ce:	4806      	ldr	r0, [pc, #24]	; (2e8 <serial_knx_init+0x2c>)
     2d0:	4c06      	ldr	r4, [pc, #24]	; (2ec <serial_knx_init+0x30>)
     2d2:	47a0      	blx	r4
     2d4:	4b06      	ldr	r3, [pc, #24]	; (2f0 <serial_knx_init+0x34>)
     2d6:	4798      	blx	r3
     2d8:	b002      	add	sp, #8
     2da:	bd10      	pop	{r4, pc}
     2dc:	00000259 	.word	0x00000259
     2e0:	2000001c 	.word	0x2000001c
     2e4:	42000800 	.word	0x42000800
     2e8:	20000218 	.word	0x20000218
     2ec:	0000093d 	.word	0x0000093d
     2f0:	00000279 	.word	0x00000279

000002f4 <serial_bsm_CLOCK_init>:
     2f4:	4a04      	ldr	r2, [pc, #16]	; (308 <serial_bsm_CLOCK_init+0x14>)
     2f6:	6a13      	ldr	r3, [r2, #32]
     2f8:	2120      	movs	r1, #32
     2fa:	430b      	orrs	r3, r1
     2fc:	6213      	str	r3, [r2, #32]
     2fe:	4a03      	ldr	r2, [pc, #12]	; (30c <serial_bsm_CLOCK_init+0x18>)
     300:	4b03      	ldr	r3, [pc, #12]	; (310 <serial_bsm_CLOCK_init+0x1c>)
     302:	805a      	strh	r2, [r3, #2]
     304:	4770      	bx	lr
     306:	46c0      	nop			; (mov r8, r8)
     308:	40000400 	.word	0x40000400
     30c:	00004317 	.word	0x00004317
     310:	40000c00 	.word	0x40000c00

00000314 <serial_bsm_PORT_init>:
     314:	b530      	push	{r4, r5, lr}
     316:	4b0f      	ldr	r3, [pc, #60]	; (354 <serial_bsm_PORT_init+0x40>)
     318:	2256      	movs	r2, #86	; 0x56
     31a:	5c99      	ldrb	r1, [r3, r2]
     31c:	2501      	movs	r5, #1
     31e:	43a9      	bics	r1, r5
     320:	2401      	movs	r4, #1
     322:	4321      	orrs	r1, r4
     324:	b2c9      	uxtb	r1, r1
     326:	5499      	strb	r1, [r3, r2]
     328:	203b      	movs	r0, #59	; 0x3b
     32a:	5c19      	ldrb	r1, [r3, r0]
     32c:	3a47      	subs	r2, #71	; 0x47
     32e:	4391      	bics	r1, r2
     330:	2202      	movs	r2, #2
     332:	4311      	orrs	r1, r2
     334:	b2c9      	uxtb	r1, r1
     336:	5419      	strb	r1, [r3, r0]
     338:	2157      	movs	r1, #87	; 0x57
     33a:	5c5a      	ldrb	r2, [r3, r1]
     33c:	43aa      	bics	r2, r5
     33e:	4322      	orrs	r2, r4
     340:	b2d2      	uxtb	r2, r2
     342:	545a      	strb	r2, [r3, r1]
     344:	5c1a      	ldrb	r2, [r3, r0]
     346:	3948      	subs	r1, #72	; 0x48
     348:	400a      	ands	r2, r1
     34a:	2120      	movs	r1, #32
     34c:	430a      	orrs	r2, r1
     34e:	b2d2      	uxtb	r2, r2
     350:	541a      	strb	r2, [r3, r0]
     352:	bd30      	pop	{r4, r5, pc}
     354:	41004400 	.word	0x41004400

00000358 <serial_bsm_init>:
     358:	b510      	push	{r4, lr}
     35a:	b082      	sub	sp, #8
     35c:	4b07      	ldr	r3, [pc, #28]	; (37c <serial_bsm_init+0x24>)
     35e:	4798      	blx	r3
     360:	2300      	movs	r3, #0
     362:	9300      	str	r3, [sp, #0]
     364:	3310      	adds	r3, #16
     366:	4a06      	ldr	r2, [pc, #24]	; (380 <serial_bsm_init+0x28>)
     368:	3210      	adds	r2, #16
     36a:	4906      	ldr	r1, [pc, #24]	; (384 <serial_bsm_init+0x2c>)
     36c:	4806      	ldr	r0, [pc, #24]	; (388 <serial_bsm_init+0x30>)
     36e:	4c07      	ldr	r4, [pc, #28]	; (38c <serial_bsm_init+0x34>)
     370:	47a0      	blx	r4
     372:	4b07      	ldr	r3, [pc, #28]	; (390 <serial_bsm_init+0x38>)
     374:	4798      	blx	r3
     376:	b002      	add	sp, #8
     378:	bd10      	pop	{r4, pc}
     37a:	46c0      	nop			; (mov r8, r8)
     37c:	000002f5 	.word	0x000002f5
     380:	2000001c 	.word	0x2000001c
     384:	42001400 	.word	0x42001400
     388:	200001c8 	.word	0x200001c8
     38c:	0000093d 	.word	0x0000093d
     390:	00000315 	.word	0x00000315

00000394 <system_init>:
     394:	b510      	push	{r4, lr}
     396:	4b0e      	ldr	r3, [pc, #56]	; (3d0 <system_init+0x3c>)
     398:	4798      	blx	r3
     39a:	23c0      	movs	r3, #192	; 0xc0
     39c:	05db      	lsls	r3, r3, #23
     39e:	2280      	movs	r2, #128	; 0x80
     3a0:	05d2      	lsls	r2, r2, #23
     3a2:	2194      	movs	r1, #148	; 0x94
     3a4:	505a      	str	r2, [r3, r1]
     3a6:	390c      	subs	r1, #12
     3a8:	505a      	str	r2, [r3, r1]
     3aa:	4b0a      	ldr	r3, [pc, #40]	; (3d4 <system_init+0x40>)
     3ac:	3120      	adds	r1, #32
     3ae:	505a      	str	r2, [r3, r1]
     3b0:	4a09      	ldr	r2, [pc, #36]	; (3d8 <system_init+0x44>)
     3b2:	505a      	str	r2, [r3, r1]
     3b4:	3136      	adds	r1, #54	; 0x36
     3b6:	5c5a      	ldrb	r2, [r3, r1]
     3b8:	2001      	movs	r0, #1
     3ba:	4382      	bics	r2, r0
     3bc:	545a      	strb	r2, [r3, r1]
     3be:	4b07      	ldr	r3, [pc, #28]	; (3dc <system_init+0x48>)
     3c0:	4798      	blx	r3
     3c2:	4b07      	ldr	r3, [pc, #28]	; (3e0 <system_init+0x4c>)
     3c4:	4798      	blx	r3
     3c6:	4b07      	ldr	r3, [pc, #28]	; (3e4 <system_init+0x50>)
     3c8:	4798      	blx	r3
     3ca:	4b07      	ldr	r3, [pc, #28]	; (3e8 <system_init+0x54>)
     3cc:	4798      	blx	r3
     3ce:	bd10      	pop	{r4, pc}
     3d0:	00000c11 	.word	0x00000c11
     3d4:	41004400 	.word	0x41004400
     3d8:	c0004000 	.word	0xc0004000
     3dc:	00000239 	.word	0x00000239
     3e0:	000002bd 	.word	0x000002bd
     3e4:	00000359 	.word	0x00000359
     3e8:	000001e9 	.word	0x000001e9

000003ec <atomic_enter_critical>:
 */
__STATIC_FORCEINLINE uint32_t __get_PRIMASK(void)
{
  uint32_t result;

  __ASM volatile ("MRS %0, primask" : "=r" (result) :: "memory");
     3ec:	f3ef 8310 	mrs	r3, PRIMASK
     3f0:	6003      	str	r3, [r0, #0]
  __ASM volatile ("cpsid i" : : : "memory");
     3f2:	b672      	cpsid	i
  \details Ensures the apparent order of the explicit memory operations before
           and after the instruction, without ensuring their completion.
 */
__STATIC_FORCEINLINE void __DMB(void)
{
  __ASM volatile ("dmb 0xF":::"memory");
     3f4:	f3bf 8f5f 	dmb	sy
     3f8:	4770      	bx	lr

000003fa <atomic_leave_critical>:
     3fa:	f3bf 8f5f 	dmb	sy
     3fe:	6803      	ldr	r3, [r0, #0]
  __ASM volatile ("MSR primask, %0" : : "r" (priMask) : "memory");
     400:	f383 8810 	msr	PRIMASK, r3
     404:	4770      	bx	lr

00000406 <flash_ready>:
     406:	b510      	push	{r4, lr}
     408:	6943      	ldr	r3, [r0, #20]
     40a:	2b00      	cmp	r3, #0
     40c:	d000      	beq.n	410 <flash_ready+0xa>
     40e:	4798      	blx	r3
     410:	bd10      	pop	{r4, pc}

00000412 <flash_error>:
     412:	b510      	push	{r4, lr}
     414:	6983      	ldr	r3, [r0, #24]
     416:	2b00      	cmp	r3, #0
     418:	d000      	beq.n	41c <flash_error+0xa>
     41a:	4798      	blx	r3
     41c:	bd10      	pop	{r4, pc}
	...

00000420 <flash_init>:
     420:	b570      	push	{r4, r5, r6, lr}
     422:	0004      	movs	r4, r0
     424:	000d      	movs	r5, r1
     426:	2800      	cmp	r0, #0
     428:	d013      	beq.n	452 <flash_init+0x32>
     42a:	2900      	cmp	r1, #0
     42c:	d00f      	beq.n	44e <flash_init+0x2e>
     42e:	2001      	movs	r0, #1
     430:	2238      	movs	r2, #56	; 0x38
     432:	4909      	ldr	r1, [pc, #36]	; (458 <flash_init+0x38>)
     434:	4b09      	ldr	r3, [pc, #36]	; (45c <flash_init+0x3c>)
     436:	4798      	blx	r3
     438:	0029      	movs	r1, r5
     43a:	0020      	movs	r0, r4
     43c:	4b08      	ldr	r3, [pc, #32]	; (460 <flash_init+0x40>)
     43e:	4798      	blx	r3
     440:	2800      	cmp	r0, #0
     442:	d103      	bne.n	44c <flash_init+0x2c>
     444:	4b07      	ldr	r3, [pc, #28]	; (464 <flash_init+0x44>)
     446:	6023      	str	r3, [r4, #0]
     448:	4b07      	ldr	r3, [pc, #28]	; (468 <flash_init+0x48>)
     44a:	6063      	str	r3, [r4, #4]
     44c:	bd70      	pop	{r4, r5, r6, pc}
     44e:	2000      	movs	r0, #0
     450:	e7ee      	b.n	430 <flash_init+0x10>
     452:	2000      	movs	r0, #0
     454:	e7ec      	b.n	430 <flash_init+0x10>
     456:	46c0      	nop			; (mov r8, r8)
     458:	0000161c 	.word	0x0000161c
     45c:	00000aad 	.word	0x00000aad
     460:	00000d39 	.word	0x00000d39
     464:	00000407 	.word	0x00000407
     468:	00000413 	.word	0x00000413

0000046c <flash_read>:
     46c:	b5f0      	push	{r4, r5, r6, r7, lr}
     46e:	46c6      	mov	lr, r8
     470:	b500      	push	{lr}
     472:	0004      	movs	r4, r0
     474:	000e      	movs	r6, r1
     476:	0015      	movs	r5, r2
     478:	001f      	movs	r7, r3
     47a:	2800      	cmp	r0, #0
     47c:	d020      	beq.n	4c0 <flash_read+0x54>
     47e:	2a00      	cmp	r2, #0
     480:	d020      	beq.n	4c4 <flash_read+0x58>
     482:	2b00      	cmp	r3, #0
     484:	d120      	bne.n	4c8 <flash_read+0x5c>
     486:	2000      	movs	r0, #0
     488:	2256      	movs	r2, #86	; 0x56
     48a:	4913      	ldr	r1, [pc, #76]	; (4d8 <flash_read+0x6c>)
     48c:	4b13      	ldr	r3, [pc, #76]	; (4dc <flash_read+0x70>)
     48e:	4798      	blx	r3
     490:	0020      	movs	r0, r4
     492:	4b13      	ldr	r3, [pc, #76]	; (4e0 <flash_read+0x74>)
     494:	4798      	blx	r3
     496:	4680      	mov	r8, r0
     498:	0020      	movs	r0, r4
     49a:	4b12      	ldr	r3, [pc, #72]	; (4e4 <flash_read+0x78>)
     49c:	4798      	blx	r3
     49e:	4643      	mov	r3, r8
     4a0:	4358      	muls	r0, r3
     4a2:	42b0      	cmp	r0, r6
     4a4:	d312      	bcc.n	4cc <flash_read+0x60>
     4a6:	19bb      	adds	r3, r7, r6
     4a8:	4298      	cmp	r0, r3
     4aa:	d312      	bcc.n	4d2 <flash_read+0x66>
     4ac:	003b      	movs	r3, r7
     4ae:	002a      	movs	r2, r5
     4b0:	0031      	movs	r1, r6
     4b2:	0020      	movs	r0, r4
     4b4:	4c0c      	ldr	r4, [pc, #48]	; (4e8 <flash_read+0x7c>)
     4b6:	47a0      	blx	r4
     4b8:	2000      	movs	r0, #0
     4ba:	bc04      	pop	{r2}
     4bc:	4690      	mov	r8, r2
     4be:	bdf0      	pop	{r4, r5, r6, r7, pc}
     4c0:	2000      	movs	r0, #0
     4c2:	e7e1      	b.n	488 <flash_read+0x1c>
     4c4:	2000      	movs	r0, #0
     4c6:	e7df      	b.n	488 <flash_read+0x1c>
     4c8:	2001      	movs	r0, #1
     4ca:	e7dd      	b.n	488 <flash_read+0x1c>
     4cc:	200e      	movs	r0, #14
     4ce:	4240      	negs	r0, r0
     4d0:	e7f3      	b.n	4ba <flash_read+0x4e>
     4d2:	200e      	movs	r0, #14
     4d4:	4240      	negs	r0, r0
     4d6:	e7f0      	b.n	4ba <flash_read+0x4e>
     4d8:	0000161c 	.word	0x0000161c
     4dc:	00000aad 	.word	0x00000aad
     4e0:	00000d99 	.word	0x00000d99
     4e4:	00000d9d 	.word	0x00000d9d
     4e8:	00000da3 	.word	0x00000da3

000004ec <flash_write>:
     4ec:	b5f0      	push	{r4, r5, r6, r7, lr}
     4ee:	46c6      	mov	lr, r8
     4f0:	b500      	push	{lr}
     4f2:	0004      	movs	r4, r0
     4f4:	000d      	movs	r5, r1
     4f6:	0016      	movs	r6, r2
     4f8:	001f      	movs	r7, r3
     4fa:	2800      	cmp	r0, #0
     4fc:	d026      	beq.n	54c <flash_write+0x60>
     4fe:	2a00      	cmp	r2, #0
     500:	d026      	beq.n	550 <flash_write+0x64>
     502:	2b00      	cmp	r3, #0
     504:	d126      	bne.n	554 <flash_write+0x68>
     506:	2000      	movs	r0, #0
     508:	226a      	movs	r2, #106	; 0x6a
     50a:	4918      	ldr	r1, [pc, #96]	; (56c <flash_write+0x80>)
     50c:	4b18      	ldr	r3, [pc, #96]	; (570 <flash_write+0x84>)
     50e:	4798      	blx	r3
     510:	0020      	movs	r0, r4
     512:	4b18      	ldr	r3, [pc, #96]	; (574 <flash_write+0x88>)
     514:	4798      	blx	r3
     516:	4680      	mov	r8, r0
     518:	0020      	movs	r0, r4
     51a:	4b17      	ldr	r3, [pc, #92]	; (578 <flash_write+0x8c>)
     51c:	4798      	blx	r3
     51e:	4643      	mov	r3, r8
     520:	4358      	muls	r0, r3
     522:	42a8      	cmp	r0, r5
     524:	d318      	bcc.n	558 <flash_write+0x6c>
     526:	197b      	adds	r3, r7, r5
     528:	4298      	cmp	r0, r3
     52a:	d318      	bcc.n	55e <flash_write+0x72>
     52c:	0029      	movs	r1, r5
     52e:	0020      	movs	r0, r4
     530:	4b12      	ldr	r3, [pc, #72]	; (57c <flash_write+0x90>)
     532:	4798      	blx	r3
     534:	2800      	cmp	r0, #0
     536:	d115      	bne.n	564 <flash_write+0x78>
     538:	003b      	movs	r3, r7
     53a:	0032      	movs	r2, r6
     53c:	0029      	movs	r1, r5
     53e:	0020      	movs	r0, r4
     540:	4c0f      	ldr	r4, [pc, #60]	; (580 <flash_write+0x94>)
     542:	47a0      	blx	r4
     544:	2000      	movs	r0, #0
     546:	bc04      	pop	{r2}
     548:	4690      	mov	r8, r2
     54a:	bdf0      	pop	{r4, r5, r6, r7, pc}
     54c:	2000      	movs	r0, #0
     54e:	e7db      	b.n	508 <flash_write+0x1c>
     550:	2000      	movs	r0, #0
     552:	e7d9      	b.n	508 <flash_write+0x1c>
     554:	2001      	movs	r0, #1
     556:	e7d7      	b.n	508 <flash_write+0x1c>
     558:	200e      	movs	r0, #14
     55a:	4240      	negs	r0, r0
     55c:	e7f3      	b.n	546 <flash_write+0x5a>
     55e:	200e      	movs	r0, #14
     560:	4240      	negs	r0, r0
     562:	e7f0      	b.n	546 <flash_write+0x5a>
     564:	2011      	movs	r0, #17
     566:	4240      	negs	r0, r0
     568:	e7ed      	b.n	546 <flash_write+0x5a>
     56a:	46c0      	nop			; (mov r8, r8)
     56c:	0000161c 	.word	0x0000161c
     570:	00000aad 	.word	0x00000aad
     574:	00000d99 	.word	0x00000d99
     578:	00000d9d 	.word	0x00000d9d
     57c:	00000ec9 	.word	0x00000ec9
     580:	00000df1 	.word	0x00000df1

00000584 <flash_get_page_size>:
     584:	b510      	push	{r4, lr}
     586:	0004      	movs	r4, r0
     588:	1e43      	subs	r3, r0, #1
     58a:	4198      	sbcs	r0, r3
     58c:	b2c0      	uxtb	r0, r0
     58e:	22f7      	movs	r2, #247	; 0xf7
     590:	4903      	ldr	r1, [pc, #12]	; (5a0 <flash_get_page_size+0x1c>)
     592:	4b04      	ldr	r3, [pc, #16]	; (5a4 <flash_get_page_size+0x20>)
     594:	4798      	blx	r3
     596:	0020      	movs	r0, r4
     598:	4b03      	ldr	r3, [pc, #12]	; (5a8 <flash_get_page_size+0x24>)
     59a:	4798      	blx	r3
     59c:	bd10      	pop	{r4, pc}
     59e:	46c0      	nop			; (mov r8, r8)
     5a0:	0000161c 	.word	0x0000161c
     5a4:	00000aad 	.word	0x00000aad
     5a8:	00000d99 	.word	0x00000d99

000005ac <io_read>:
     5ac:	b570      	push	{r4, r5, r6, lr}
     5ae:	0004      	movs	r4, r0
     5b0:	000d      	movs	r5, r1
     5b2:	0016      	movs	r6, r2
     5b4:	2800      	cmp	r0, #0
     5b6:	d00e      	beq.n	5d6 <io_read+0x2a>
     5b8:	2900      	cmp	r1, #0
     5ba:	d00a      	beq.n	5d2 <io_read+0x26>
     5bc:	2001      	movs	r0, #1
     5be:	223d      	movs	r2, #61	; 0x3d
     5c0:	4906      	ldr	r1, [pc, #24]	; (5dc <io_read+0x30>)
     5c2:	4b07      	ldr	r3, [pc, #28]	; (5e0 <io_read+0x34>)
     5c4:	4798      	blx	r3
     5c6:	6863      	ldr	r3, [r4, #4]
     5c8:	0032      	movs	r2, r6
     5ca:	0029      	movs	r1, r5
     5cc:	0020      	movs	r0, r4
     5ce:	4798      	blx	r3
     5d0:	bd70      	pop	{r4, r5, r6, pc}
     5d2:	2000      	movs	r0, #0
     5d4:	e7f3      	b.n	5be <io_read+0x12>
     5d6:	2000      	movs	r0, #0
     5d8:	e7f1      	b.n	5be <io_read+0x12>
     5da:	46c0      	nop			; (mov r8, r8)
     5dc:	00001634 	.word	0x00001634
     5e0:	00000aad 	.word	0x00000aad

000005e4 <timer_add_timer_task>:
     5e4:	b5f8      	push	{r3, r4, r5, r6, r7, lr}
     5e6:	6806      	ldr	r6, [r0, #0]
     5e8:	2e00      	cmp	r6, #0
     5ea:	d002      	beq.n	5f2 <timer_add_timer_task+0xe>
     5ec:	0033      	movs	r3, r6
     5ee:	2500      	movs	r5, #0
     5f0:	e00c      	b.n	60c <timer_add_timer_task+0x28>
     5f2:	4b10      	ldr	r3, [pc, #64]	; (634 <timer_add_timer_task+0x50>)
     5f4:	4798      	blx	r3
     5f6:	e018      	b.n	62a <timer_add_timer_task+0x46>
     5f8:	689f      	ldr	r7, [r3, #8]
     5fa:	46bc      	mov	ip, r7
     5fc:	4464      	add	r4, ip
     5fe:	1aa4      	subs	r4, r4, r2
     600:	3401      	adds	r4, #1
     602:	688f      	ldr	r7, [r1, #8]
     604:	42bc      	cmp	r4, r7
     606:	d20b      	bcs.n	620 <timer_add_timer_task+0x3c>
     608:	001d      	movs	r5, r3
     60a:	681b      	ldr	r3, [r3, #0]
     60c:	2b00      	cmp	r3, #0
     60e:	d007      	beq.n	620 <timer_add_timer_task+0x3c>
     610:	685c      	ldr	r4, [r3, #4]
     612:	4294      	cmp	r4, r2
     614:	d8f0      	bhi.n	5f8 <timer_add_timer_task+0x14>
     616:	1aa4      	subs	r4, r4, r2
     618:	689f      	ldr	r7, [r3, #8]
     61a:	46bc      	mov	ip, r7
     61c:	4464      	add	r4, ip
     61e:	e7f0      	b.n	602 <timer_add_timer_task+0x1e>
     620:	42b3      	cmp	r3, r6
     622:	d003      	beq.n	62c <timer_add_timer_task+0x48>
     624:	0028      	movs	r0, r5
     626:	4b04      	ldr	r3, [pc, #16]	; (638 <timer_add_timer_task+0x54>)
     628:	4798      	blx	r3
     62a:	bdf8      	pop	{r3, r4, r5, r6, r7, pc}
     62c:	4b01      	ldr	r3, [pc, #4]	; (634 <timer_add_timer_task+0x50>)
     62e:	4798      	blx	r3
     630:	e7fb      	b.n	62a <timer_add_timer_task+0x46>
     632:	46c0      	nop			; (mov r8, r8)
     634:	00000acd 	.word	0x00000acd
     638:	00000af9 	.word	0x00000af9

0000063c <timer_process_counted>:
     63c:	b5f8      	push	{r3, r4, r5, r6, r7, lr}
     63e:	0005      	movs	r5, r0
     640:	6944      	ldr	r4, [r0, #20]
     642:	6903      	ldr	r3, [r0, #16]
     644:	1c5e      	adds	r6, r3, #1
     646:	6106      	str	r6, [r0, #16]
     648:	7e03      	ldrb	r3, [r0, #24]
     64a:	07db      	lsls	r3, r3, #31
     64c:	d402      	bmi.n	654 <timer_process_counted+0x18>
     64e:	7e03      	ldrb	r3, [r0, #24]
     650:	079b      	lsls	r3, r3, #30
     652:	d50a      	bpl.n	66a <timer_process_counted+0x2e>
     654:	7e2b      	ldrb	r3, [r5, #24]
     656:	2202      	movs	r2, #2
     658:	4313      	orrs	r3, r2
     65a:	b2db      	uxtb	r3, r3
     65c:	762b      	strb	r3, [r5, #24]
     65e:	bdf8      	pop	{r3, r4, r5, r6, r7, pc}
     660:	696f      	ldr	r7, [r5, #20]
     662:	68e3      	ldr	r3, [r4, #12]
     664:	0020      	movs	r0, r4
     666:	4798      	blx	r3
     668:	003c      	movs	r4, r7
     66a:	2c00      	cmp	r4, #0
     66c:	d0f7      	beq.n	65e <timer_process_counted+0x22>
     66e:	6863      	ldr	r3, [r4, #4]
     670:	1af3      	subs	r3, r6, r3
     672:	68a2      	ldr	r2, [r4, #8]
     674:	4293      	cmp	r3, r2
     676:	d3f2      	bcc.n	65e <timer_process_counted+0x22>
     678:	002f      	movs	r7, r5
     67a:	3714      	adds	r7, #20
     67c:	0038      	movs	r0, r7
     67e:	4b06      	ldr	r3, [pc, #24]	; (698 <timer_process_counted+0x5c>)
     680:	4798      	blx	r3
     682:	7c23      	ldrb	r3, [r4, #16]
     684:	2b01      	cmp	r3, #1
     686:	d1eb      	bne.n	660 <timer_process_counted+0x24>
     688:	6066      	str	r6, [r4, #4]
     68a:	0032      	movs	r2, r6
     68c:	0021      	movs	r1, r4
     68e:	0038      	movs	r0, r7
     690:	4b02      	ldr	r3, [pc, #8]	; (69c <timer_process_counted+0x60>)
     692:	4798      	blx	r3
     694:	e7e4      	b.n	660 <timer_process_counted+0x24>
     696:	46c0      	nop			; (mov r8, r8)
     698:	00000b01 	.word	0x00000b01
     69c:	000005e5 	.word	0x000005e5

000006a0 <timer_init>:
     6a0:	b570      	push	{r4, r5, r6, lr}
     6a2:	0004      	movs	r4, r0
     6a4:	000d      	movs	r5, r1
     6a6:	2800      	cmp	r0, #0
     6a8:	d012      	beq.n	6d0 <timer_init+0x30>
     6aa:	2900      	cmp	r1, #0
     6ac:	d00e      	beq.n	6cc <timer_init+0x2c>
     6ae:	2001      	movs	r0, #1
     6b0:	223b      	movs	r2, #59	; 0x3b
     6b2:	4908      	ldr	r1, [pc, #32]	; (6d4 <timer_init+0x34>)
     6b4:	4b08      	ldr	r3, [pc, #32]	; (6d8 <timer_init+0x38>)
     6b6:	4798      	blx	r3
     6b8:	0029      	movs	r1, r5
     6ba:	0020      	movs	r0, r4
     6bc:	4b07      	ldr	r3, [pc, #28]	; (6dc <timer_init+0x3c>)
     6be:	4798      	blx	r3
     6c0:	2300      	movs	r3, #0
     6c2:	6123      	str	r3, [r4, #16]
     6c4:	4b06      	ldr	r3, [pc, #24]	; (6e0 <timer_init+0x40>)
     6c6:	6023      	str	r3, [r4, #0]
     6c8:	2000      	movs	r0, #0
     6ca:	bd70      	pop	{r4, r5, r6, pc}
     6cc:	2000      	movs	r0, #0
     6ce:	e7ef      	b.n	6b0 <timer_init+0x10>
     6d0:	2000      	movs	r0, #0
     6d2:	e7ed      	b.n	6b0 <timer_init+0x10>
     6d4:	00001648 	.word	0x00001648
     6d8:	00000aad 	.word	0x00000aad
     6dc:	00000f4d 	.word	0x00000f4d
     6e0:	0000063d 	.word	0x0000063d

000006e4 <timer_start>:
     6e4:	b510      	push	{r4, lr}
     6e6:	0004      	movs	r4, r0
     6e8:	1e43      	subs	r3, r0, #1
     6ea:	4198      	sbcs	r0, r3
     6ec:	b2c0      	uxtb	r0, r0
     6ee:	2253      	movs	r2, #83	; 0x53
     6f0:	4907      	ldr	r1, [pc, #28]	; (710 <timer_start+0x2c>)
     6f2:	4b08      	ldr	r3, [pc, #32]	; (714 <timer_start+0x30>)
     6f4:	4798      	blx	r3
     6f6:	0020      	movs	r0, r4
     6f8:	4b07      	ldr	r3, [pc, #28]	; (718 <timer_start+0x34>)
     6fa:	4798      	blx	r3
     6fc:	2800      	cmp	r0, #0
     6fe:	d104      	bne.n	70a <timer_start+0x26>
     700:	0020      	movs	r0, r4
     702:	4b06      	ldr	r3, [pc, #24]	; (71c <timer_start+0x38>)
     704:	4798      	blx	r3
     706:	2000      	movs	r0, #0
     708:	bd10      	pop	{r4, pc}
     70a:	2011      	movs	r0, #17
     70c:	4240      	negs	r0, r0
     70e:	e7fb      	b.n	708 <timer_start+0x24>
     710:	00001648 	.word	0x00001648
     714:	00000aad 	.word	0x00000aad
     718:	00001001 	.word	0x00001001
     71c:	00000fa9 	.word	0x00000fa9

00000720 <timer_add_task>:
     720:	b570      	push	{r4, r5, r6, lr}
     722:	b082      	sub	sp, #8
     724:	0004      	movs	r4, r0
     726:	000d      	movs	r5, r1
     728:	2800      	cmp	r0, #0
     72a:	d026      	beq.n	77a <timer_add_task+0x5a>
     72c:	2900      	cmp	r1, #0
     72e:	d022      	beq.n	776 <timer_add_task+0x56>
     730:	2001      	movs	r0, #1
     732:	227a      	movs	r2, #122	; 0x7a
     734:	491f      	ldr	r1, [pc, #124]	; (7b4 <timer_add_task+0x94>)
     736:	4b20      	ldr	r3, [pc, #128]	; (7b8 <timer_add_task+0x98>)
     738:	4798      	blx	r3
     73a:	7e23      	ldrb	r3, [r4, #24]
     73c:	2201      	movs	r2, #1
     73e:	4313      	orrs	r3, r2
     740:	b2db      	uxtb	r3, r3
     742:	7623      	strb	r3, [r4, #24]
     744:	0026      	movs	r6, r4
     746:	3614      	adds	r6, #20
     748:	0029      	movs	r1, r5
     74a:	0030      	movs	r0, r6
     74c:	4b1b      	ldr	r3, [pc, #108]	; (7bc <timer_add_task+0x9c>)
     74e:	4798      	blx	r3
     750:	2800      	cmp	r0, #0
     752:	d114      	bne.n	77e <timer_add_task+0x5e>
     754:	6923      	ldr	r3, [r4, #16]
     756:	606b      	str	r3, [r5, #4]
     758:	6922      	ldr	r2, [r4, #16]
     75a:	0029      	movs	r1, r5
     75c:	0030      	movs	r0, r6
     75e:	4b18      	ldr	r3, [pc, #96]	; (7c0 <timer_add_task+0xa0>)
     760:	4798      	blx	r3
     762:	7e23      	ldrb	r3, [r4, #24]
     764:	2201      	movs	r2, #1
     766:	4393      	bics	r3, r2
     768:	7623      	strb	r3, [r4, #24]
     76a:	7e23      	ldrb	r3, [r4, #24]
     76c:	079b      	lsls	r3, r3, #30
     76e:	d412      	bmi.n	796 <timer_add_task+0x76>
     770:	2000      	movs	r0, #0
     772:	b002      	add	sp, #8
     774:	bd70      	pop	{r4, r5, r6, pc}
     776:	2000      	movs	r0, #0
     778:	e7db      	b.n	732 <timer_add_task+0x12>
     77a:	2000      	movs	r0, #0
     77c:	e7d9      	b.n	732 <timer_add_task+0x12>
     77e:	7e23      	ldrb	r3, [r4, #24]
     780:	2201      	movs	r2, #1
     782:	4393      	bics	r3, r2
     784:	7623      	strb	r3, [r4, #24]
     786:	327e      	adds	r2, #126	; 0x7e
     788:	490a      	ldr	r1, [pc, #40]	; (7b4 <timer_add_task+0x94>)
     78a:	2000      	movs	r0, #0
     78c:	4b0a      	ldr	r3, [pc, #40]	; (7b8 <timer_add_task+0x98>)
     78e:	4798      	blx	r3
     790:	2012      	movs	r0, #18
     792:	4240      	negs	r0, r0
     794:	e7ed      	b.n	772 <timer_add_task+0x52>
     796:	a801      	add	r0, sp, #4
     798:	4b0a      	ldr	r3, [pc, #40]	; (7c4 <timer_add_task+0xa4>)
     79a:	4798      	blx	r3
     79c:	7e23      	ldrb	r3, [r4, #24]
     79e:	2202      	movs	r2, #2
     7a0:	4393      	bics	r3, r2
     7a2:	7623      	strb	r3, [r4, #24]
     7a4:	0020      	movs	r0, r4
     7a6:	4b08      	ldr	r3, [pc, #32]	; (7c8 <timer_add_task+0xa8>)
     7a8:	4798      	blx	r3
     7aa:	a801      	add	r0, sp, #4
     7ac:	4b07      	ldr	r3, [pc, #28]	; (7cc <timer_add_task+0xac>)
     7ae:	4798      	blx	r3
     7b0:	2000      	movs	r0, #0
     7b2:	e7de      	b.n	772 <timer_add_task+0x52>
     7b4:	00001648 	.word	0x00001648
     7b8:	00000aad 	.word	0x00000aad
     7bc:	00000ab5 	.word	0x00000ab5
     7c0:	000005e5 	.word	0x000005e5
     7c4:	000003ed 	.word	0x000003ed
     7c8:	00001013 	.word	0x00001013
     7cc:	000003fb 	.word	0x000003fb

000007d0 <usart_transmission_complete>:
     7d0:	b510      	push	{r4, lr}
     7d2:	3808      	subs	r0, #8
     7d4:	2300      	movs	r3, #0
     7d6:	6303      	str	r3, [r0, #48]	; 0x30
     7d8:	6a43      	ldr	r3, [r0, #36]	; 0x24
     7da:	2b00      	cmp	r3, #0
     7dc:	d000      	beq.n	7e0 <usart_transmission_complete+0x10>
     7de:	4798      	blx	r3
     7e0:	bd10      	pop	{r4, pc}

000007e2 <usart_error>:
     7e2:	b510      	push	{r4, lr}
     7e4:	3808      	subs	r0, #8
     7e6:	2300      	movs	r3, #0
     7e8:	6303      	str	r3, [r0, #48]	; 0x30
     7ea:	6ac3      	ldr	r3, [r0, #44]	; 0x2c
     7ec:	2b00      	cmp	r3, #0
     7ee:	d000      	beq.n	7f2 <usart_error+0x10>
     7f0:	4798      	blx	r3
     7f2:	bd10      	pop	{r4, pc}

000007f4 <usart_fill_rx_buffer>:
     7f4:	b510      	push	{r4, lr}
     7f6:	0004      	movs	r4, r0
     7f8:	302c      	adds	r0, #44	; 0x2c
     7fa:	4b04      	ldr	r3, [pc, #16]	; (80c <usart_fill_rx_buffer+0x18>)
     7fc:	4798      	blx	r3
     7fe:	6a23      	ldr	r3, [r4, #32]
     800:	3c08      	subs	r4, #8
     802:	2b00      	cmp	r3, #0
     804:	d001      	beq.n	80a <usart_fill_rx_buffer+0x16>
     806:	0020      	movs	r0, r4
     808:	4798      	blx	r3
     80a:	bd10      	pop	{r4, pc}
     80c:	00000bad 	.word	0x00000bad

00000810 <usart_async_write>:
     810:	b570      	push	{r4, r5, r6, lr}
     812:	0004      	movs	r4, r0
     814:	000e      	movs	r6, r1
     816:	0015      	movs	r5, r2
     818:	2800      	cmp	r0, #0
     81a:	d01d      	beq.n	858 <usart_async_write+0x48>
     81c:	2900      	cmp	r1, #0
     81e:	d01d      	beq.n	85c <usart_async_write+0x4c>
     820:	2a00      	cmp	r2, #0
     822:	d11d      	bne.n	860 <usart_async_write+0x50>
     824:	2000      	movs	r0, #0
     826:	223c      	movs	r2, #60	; 0x3c
     828:	32ff      	adds	r2, #255	; 0xff
     82a:	4910      	ldr	r1, [pc, #64]	; (86c <usart_async_write+0x5c>)
     82c:	4b10      	ldr	r3, [pc, #64]	; (870 <usart_async_write+0x60>)
     82e:	4798      	blx	r3
     830:	2344      	movs	r3, #68	; 0x44
     832:	5ae2      	ldrh	r2, [r4, r3]
     834:	3308      	adds	r3, #8
     836:	5ae3      	ldrh	r3, [r4, r3]
     838:	429a      	cmp	r2, r3
     83a:	d113      	bne.n	864 <usart_async_write+0x54>
     83c:	64a6      	str	r6, [r4, #72]	; 0x48
     83e:	234c      	movs	r3, #76	; 0x4c
     840:	52e5      	strh	r5, [r4, r3]
     842:	2200      	movs	r2, #0
     844:	3b08      	subs	r3, #8
     846:	52e2      	strh	r2, [r4, r3]
     848:	3b43      	subs	r3, #67	; 0x43
     84a:	6323      	str	r3, [r4, #48]	; 0x30
     84c:	0020      	movs	r0, r4
     84e:	3008      	adds	r0, #8
     850:	4b08      	ldr	r3, [pc, #32]	; (874 <usart_async_write+0x64>)
     852:	4798      	blx	r3
     854:	0028      	movs	r0, r5
     856:	bd70      	pop	{r4, r5, r6, pc}
     858:	2000      	movs	r0, #0
     85a:	e7e4      	b.n	826 <usart_async_write+0x16>
     85c:	2000      	movs	r0, #0
     85e:	e7e2      	b.n	826 <usart_async_write+0x16>
     860:	2001      	movs	r0, #1
     862:	e7e0      	b.n	826 <usart_async_write+0x16>
     864:	201c      	movs	r0, #28
     866:	4240      	negs	r0, r0
     868:	e7f5      	b.n	856 <usart_async_write+0x46>
     86a:	46c0      	nop			; (mov r8, r8)
     86c:	00001660 	.word	0x00001660
     870:	00000aad 	.word	0x00000aad
     874:	000012b3 	.word	0x000012b3

00000878 <usart_process_byte_sent>:
     878:	b570      	push	{r4, r5, r6, lr}
     87a:	0004      	movs	r4, r0
     87c:	0002      	movs	r2, r0
     87e:	3a08      	subs	r2, #8
     880:	2344      	movs	r3, #68	; 0x44
     882:	5ad3      	ldrh	r3, [r2, r3]
     884:	214c      	movs	r1, #76	; 0x4c
     886:	5a52      	ldrh	r2, [r2, r1]
     888:	4293      	cmp	r3, r2
     88a:	d00d      	beq.n	8a8 <usart_process_byte_sent+0x30>
     88c:	0002      	movs	r2, r0
     88e:	6c01      	ldr	r1, [r0, #64]	; 0x40
     890:	3a08      	subs	r2, #8
     892:	1c5d      	adds	r5, r3, #1
     894:	2044      	movs	r0, #68	; 0x44
     896:	5215      	strh	r5, [r2, r0]
     898:	5cc9      	ldrb	r1, [r1, r3]
     89a:	0020      	movs	r0, r4
     89c:	4b04      	ldr	r3, [pc, #16]	; (8b0 <usart_process_byte_sent+0x38>)
     89e:	4798      	blx	r3
     8a0:	0020      	movs	r0, r4
     8a2:	4b04      	ldr	r3, [pc, #16]	; (8b4 <usart_process_byte_sent+0x3c>)
     8a4:	4798      	blx	r3
     8a6:	bd70      	pop	{r4, r5, r6, pc}
     8a8:	4b03      	ldr	r3, [pc, #12]	; (8b8 <usart_process_byte_sent+0x40>)
     8aa:	4798      	blx	r3
     8ac:	e7fb      	b.n	8a6 <usart_process_byte_sent+0x2e>
     8ae:	46c0      	nop			; (mov r8, r8)
     8b0:	000012ab 	.word	0x000012ab
     8b4:	000012b3 	.word	0x000012b3
     8b8:	000012bb 	.word	0x000012bb

000008bc <usart_async_read>:
     8bc:	b5f0      	push	{r4, r5, r6, r7, lr}
     8be:	b085      	sub	sp, #20
     8c0:	0004      	movs	r4, r0
     8c2:	000d      	movs	r5, r1
     8c4:	0016      	movs	r6, r2
     8c6:	2800      	cmp	r0, #0
     8c8:	d017      	beq.n	8fa <usart_async_read+0x3e>
     8ca:	2900      	cmp	r1, #0
     8cc:	d017      	beq.n	8fe <usart_async_read+0x42>
     8ce:	2a00      	cmp	r2, #0
     8d0:	d117      	bne.n	902 <usart_async_read+0x46>
     8d2:	2000      	movs	r0, #0
     8d4:	22ac      	movs	r2, #172	; 0xac
     8d6:	0052      	lsls	r2, r2, #1
     8d8:	4912      	ldr	r1, [pc, #72]	; (924 <usart_async_read+0x68>)
     8da:	4b13      	ldr	r3, [pc, #76]	; (928 <usart_async_read+0x6c>)
     8dc:	4798      	blx	r3
     8de:	a803      	add	r0, sp, #12
     8e0:	4b12      	ldr	r3, [pc, #72]	; (92c <usart_async_read+0x70>)
     8e2:	4798      	blx	r3
     8e4:	3434      	adds	r4, #52	; 0x34
     8e6:	0020      	movs	r0, r4
     8e8:	9401      	str	r4, [sp, #4]
     8ea:	4b11      	ldr	r3, [pc, #68]	; (930 <usart_async_read+0x74>)
     8ec:	4798      	blx	r3
     8ee:	0007      	movs	r7, r0
     8f0:	a803      	add	r0, sp, #12
     8f2:	4b10      	ldr	r3, [pc, #64]	; (934 <usart_async_read+0x78>)
     8f4:	4798      	blx	r3
     8f6:	2400      	movs	r4, #0
     8f8:	e00b      	b.n	912 <usart_async_read+0x56>
     8fa:	2000      	movs	r0, #0
     8fc:	e7ea      	b.n	8d4 <usart_async_read+0x18>
     8fe:	2000      	movs	r0, #0
     900:	e7e8      	b.n	8d4 <usart_async_read+0x18>
     902:	2001      	movs	r0, #1
     904:	e7e6      	b.n	8d4 <usart_async_read+0x18>
     906:	3401      	adds	r4, #1
     908:	b2a4      	uxth	r4, r4
     90a:	1869      	adds	r1, r5, r1
     90c:	9801      	ldr	r0, [sp, #4]
     90e:	4b0a      	ldr	r3, [pc, #40]	; (938 <usart_async_read+0x7c>)
     910:	4798      	blx	r3
     912:	0021      	movs	r1, r4
     914:	42a7      	cmp	r7, r4
     916:	d901      	bls.n	91c <usart_async_read+0x60>
     918:	42b4      	cmp	r4, r6
     91a:	d3f4      	bcc.n	906 <usart_async_read+0x4a>
     91c:	0020      	movs	r0, r4
     91e:	b005      	add	sp, #20
     920:	bdf0      	pop	{r4, r5, r6, r7, pc}
     922:	46c0      	nop			; (mov r8, r8)
     924:	00001660 	.word	0x00001660
     928:	00000aad 	.word	0x00000aad
     92c:	000003ed 	.word	0x000003ed
     930:	00000bed 	.word	0x00000bed
     934:	000003fb 	.word	0x000003fb
     938:	00000b61 	.word	0x00000b61

0000093c <usart_async_init>:
     93c:	b5f8      	push	{r3, r4, r5, r6, r7, lr}
     93e:	0004      	movs	r4, r0
     940:	000d      	movs	r5, r1
     942:	0016      	movs	r6, r2
     944:	001f      	movs	r7, r3
     946:	2800      	cmp	r0, #0
     948:	d026      	beq.n	998 <usart_async_init+0x5c>
     94a:	2900      	cmp	r1, #0
     94c:	d026      	beq.n	99c <usart_async_init+0x60>
     94e:	2a00      	cmp	r2, #0
     950:	d026      	beq.n	9a0 <usart_async_init+0x64>
     952:	2b00      	cmp	r3, #0
     954:	d126      	bne.n	9a4 <usart_async_init+0x68>
     956:	2000      	movs	r0, #0
     958:	223a      	movs	r2, #58	; 0x3a
     95a:	4915      	ldr	r1, [pc, #84]	; (9b0 <usart_async_init+0x74>)
     95c:	4b15      	ldr	r3, [pc, #84]	; (9b4 <usart_async_init+0x78>)
     95e:	4798      	blx	r3
     960:	0020      	movs	r0, r4
     962:	3034      	adds	r0, #52	; 0x34
     964:	003a      	movs	r2, r7
     966:	0031      	movs	r1, r6
     968:	4b13      	ldr	r3, [pc, #76]	; (9b8 <usart_async_init+0x7c>)
     96a:	4798      	blx	r3
     96c:	2800      	cmp	r0, #0
     96e:	d11b      	bne.n	9a8 <usart_async_init+0x6c>
     970:	0020      	movs	r0, r4
     972:	3008      	adds	r0, #8
     974:	0029      	movs	r1, r5
     976:	4b11      	ldr	r3, [pc, #68]	; (9bc <usart_async_init+0x80>)
     978:	4798      	blx	r3
     97a:	2800      	cmp	r0, #0
     97c:	d10b      	bne.n	996 <usart_async_init+0x5a>
     97e:	4b10      	ldr	r3, [pc, #64]	; (9c0 <usart_async_init+0x84>)
     980:	6063      	str	r3, [r4, #4]
     982:	4b10      	ldr	r3, [pc, #64]	; (9c4 <usart_async_init+0x88>)
     984:	6023      	str	r3, [r4, #0]
     986:	4b10      	ldr	r3, [pc, #64]	; (9c8 <usart_async_init+0x8c>)
     988:	60a3      	str	r3, [r4, #8]
     98a:	4b10      	ldr	r3, [pc, #64]	; (9cc <usart_async_init+0x90>)
     98c:	60e3      	str	r3, [r4, #12]
     98e:	4b10      	ldr	r3, [pc, #64]	; (9d0 <usart_async_init+0x94>)
     990:	6123      	str	r3, [r4, #16]
     992:	4b10      	ldr	r3, [pc, #64]	; (9d4 <usart_async_init+0x98>)
     994:	6163      	str	r3, [r4, #20]
     996:	bdf8      	pop	{r3, r4, r5, r6, r7, pc}
     998:	2000      	movs	r0, #0
     99a:	e7dd      	b.n	958 <usart_async_init+0x1c>
     99c:	2000      	movs	r0, #0
     99e:	e7db      	b.n	958 <usart_async_init+0x1c>
     9a0:	2000      	movs	r0, #0
     9a2:	e7d9      	b.n	958 <usart_async_init+0x1c>
     9a4:	2001      	movs	r0, #1
     9a6:	e7d7      	b.n	958 <usart_async_init+0x1c>
     9a8:	200d      	movs	r0, #13
     9aa:	4240      	negs	r0, r0
     9ac:	e7f3      	b.n	996 <usart_async_init+0x5a>
     9ae:	46c0      	nop			; (mov r8, r8)
     9b0:	00001660 	.word	0x00001660
     9b4:	00000aad 	.word	0x00000aad
     9b8:	00000b15 	.word	0x00000b15
     9bc:	0000120d 	.word	0x0000120d
     9c0:	000008bd 	.word	0x000008bd
     9c4:	00000811 	.word	0x00000811
     9c8:	00000879 	.word	0x00000879
     9cc:	000007f5 	.word	0x000007f5
     9d0:	000007d1 	.word	0x000007d1
     9d4:	000007e3 	.word	0x000007e3

000009d8 <usart_async_enable>:
     9d8:	b510      	push	{r4, lr}
     9da:	0004      	movs	r4, r0
     9dc:	1e43      	subs	r3, r0, #1
     9de:	4198      	sbcs	r0, r3
     9e0:	b2c0      	uxtb	r0, r0
     9e2:	2261      	movs	r2, #97	; 0x61
     9e4:	4904      	ldr	r1, [pc, #16]	; (9f8 <usart_async_enable+0x20>)
     9e6:	4b05      	ldr	r3, [pc, #20]	; (9fc <usart_async_enable+0x24>)
     9e8:	4798      	blx	r3
     9ea:	0020      	movs	r0, r4
     9ec:	3008      	adds	r0, #8
     9ee:	4b04      	ldr	r3, [pc, #16]	; (a00 <usart_async_enable+0x28>)
     9f0:	4798      	blx	r3
     9f2:	2000      	movs	r0, #0
     9f4:	bd10      	pop	{r4, pc}
     9f6:	46c0      	nop			; (mov r8, r8)
     9f8:	00001660 	.word	0x00001660
     9fc:	00000aad 	.word	0x00000aad
     a00:	00001299 	.word	0x00001299

00000a04 <usart_async_get_io_descriptor>:
     a04:	b570      	push	{r4, r5, r6, lr}
     a06:	0004      	movs	r4, r0
     a08:	000d      	movs	r5, r1
     a0a:	2800      	cmp	r0, #0
     a0c:	d00b      	beq.n	a26 <usart_async_get_io_descriptor+0x22>
     a0e:	2900      	cmp	r1, #0
     a10:	d007      	beq.n	a22 <usart_async_get_io_descriptor+0x1e>
     a12:	2001      	movs	r0, #1
     a14:	2277      	movs	r2, #119	; 0x77
     a16:	4905      	ldr	r1, [pc, #20]	; (a2c <usart_async_get_io_descriptor+0x28>)
     a18:	4b05      	ldr	r3, [pc, #20]	; (a30 <usart_async_get_io_descriptor+0x2c>)
     a1a:	4798      	blx	r3
     a1c:	602c      	str	r4, [r5, #0]
     a1e:	2000      	movs	r0, #0
     a20:	bd70      	pop	{r4, r5, r6, pc}
     a22:	2000      	movs	r0, #0
     a24:	e7f6      	b.n	a14 <usart_async_get_io_descriptor+0x10>
     a26:	2000      	movs	r0, #0
     a28:	e7f4      	b.n	a14 <usart_async_get_io_descriptor+0x10>
     a2a:	46c0      	nop			; (mov r8, r8)
     a2c:	00001660 	.word	0x00001660
     a30:	00000aad 	.word	0x00000aad

00000a34 <usart_async_register_callback>:
     a34:	b570      	push	{r4, r5, r6, lr}
     a36:	0005      	movs	r5, r0
     a38:	000e      	movs	r6, r1
     a3a:	0014      	movs	r4, r2
     a3c:	1e43      	subs	r3, r0, #1
     a3e:	4198      	sbcs	r0, r3
     a40:	b2c0      	uxtb	r0, r0
     a42:	2283      	movs	r2, #131	; 0x83
     a44:	4916      	ldr	r1, [pc, #88]	; (aa0 <usart_async_register_callback+0x6c>)
     a46:	4b17      	ldr	r3, [pc, #92]	; (aa4 <usart_async_register_callback+0x70>)
     a48:	4798      	blx	r3
     a4a:	2e01      	cmp	r6, #1
     a4c:	d011      	beq.n	a72 <usart_async_register_callback+0x3e>
     a4e:	2e00      	cmp	r6, #0
     a50:	d004      	beq.n	a5c <usart_async_register_callback+0x28>
     a52:	2e02      	cmp	r6, #2
     a54:	d018      	beq.n	a88 <usart_async_register_callback+0x54>
     a56:	200d      	movs	r0, #13
     a58:	4240      	negs	r0, r0
     a5a:	e009      	b.n	a70 <usart_async_register_callback+0x3c>
     a5c:	62ac      	str	r4, [r5, #40]	; 0x28
     a5e:	1e62      	subs	r2, r4, #1
     a60:	4194      	sbcs	r4, r2
     a62:	b2e2      	uxtb	r2, r4
     a64:	0028      	movs	r0, r5
     a66:	3008      	adds	r0, #8
     a68:	2101      	movs	r1, #1
     a6a:	4b0f      	ldr	r3, [pc, #60]	; (aa8 <usart_async_register_callback+0x74>)
     a6c:	4798      	blx	r3
     a6e:	2000      	movs	r0, #0
     a70:	bd70      	pop	{r4, r5, r6, pc}
     a72:	626c      	str	r4, [r5, #36]	; 0x24
     a74:	1e62      	subs	r2, r4, #1
     a76:	4194      	sbcs	r4, r2
     a78:	b2e2      	uxtb	r2, r4
     a7a:	0028      	movs	r0, r5
     a7c:	3008      	adds	r0, #8
     a7e:	2102      	movs	r1, #2
     a80:	4b09      	ldr	r3, [pc, #36]	; (aa8 <usart_async_register_callback+0x74>)
     a82:	4798      	blx	r3
     a84:	2000      	movs	r0, #0
     a86:	e7f3      	b.n	a70 <usart_async_register_callback+0x3c>
     a88:	62ec      	str	r4, [r5, #44]	; 0x2c
     a8a:	1e62      	subs	r2, r4, #1
     a8c:	4194      	sbcs	r4, r2
     a8e:	b2e2      	uxtb	r2, r4
     a90:	0028      	movs	r0, r5
     a92:	3008      	adds	r0, #8
     a94:	2103      	movs	r1, #3
     a96:	4b04      	ldr	r3, [pc, #16]	; (aa8 <usart_async_register_callback+0x74>)
     a98:	4798      	blx	r3
     a9a:	2000      	movs	r0, #0
     a9c:	e7e8      	b.n	a70 <usart_async_register_callback+0x3c>
     a9e:	46c0      	nop			; (mov r8, r8)
     aa0:	00001660 	.word	0x00001660
     aa4:	00000aad 	.word	0x00000aad
     aa8:	000012c5 	.word	0x000012c5

00000aac <assert>:
     aac:	2800      	cmp	r0, #0
     aae:	d100      	bne.n	ab2 <assert+0x6>
     ab0:	be00      	bkpt	0x0000
     ab2:	4770      	bx	lr

00000ab4 <is_list_element>:
     ab4:	6803      	ldr	r3, [r0, #0]
     ab6:	2b00      	cmp	r3, #0
     ab8:	d003      	beq.n	ac2 <is_list_element+0xe>
     aba:	428b      	cmp	r3, r1
     abc:	d003      	beq.n	ac6 <is_list_element+0x12>
     abe:	681b      	ldr	r3, [r3, #0]
     ac0:	e7f9      	b.n	ab6 <is_list_element+0x2>
     ac2:	2000      	movs	r0, #0
     ac4:	4770      	bx	lr
     ac6:	2001      	movs	r0, #1
     ac8:	e7fc      	b.n	ac4 <is_list_element+0x10>
	...

00000acc <list_insert_as_head>:
     acc:	b570      	push	{r4, r5, r6, lr}
     ace:	0004      	movs	r4, r0
     ad0:	000d      	movs	r5, r1
     ad2:	4b06      	ldr	r3, [pc, #24]	; (aec <list_insert_as_head+0x20>)
     ad4:	4798      	blx	r3
     ad6:	2301      	movs	r3, #1
     ad8:	4058      	eors	r0, r3
     ada:	b2c0      	uxtb	r0, r0
     adc:	2239      	movs	r2, #57	; 0x39
     ade:	4904      	ldr	r1, [pc, #16]	; (af0 <list_insert_as_head+0x24>)
     ae0:	4b04      	ldr	r3, [pc, #16]	; (af4 <list_insert_as_head+0x28>)
     ae2:	4798      	blx	r3
     ae4:	6823      	ldr	r3, [r4, #0]
     ae6:	602b      	str	r3, [r5, #0]
     ae8:	6025      	str	r5, [r4, #0]
     aea:	bd70      	pop	{r4, r5, r6, pc}
     aec:	00000ab5 	.word	0x00000ab5
     af0:	00001680 	.word	0x00001680
     af4:	00000aad 	.word	0x00000aad

00000af8 <list_insert_after>:
     af8:	6803      	ldr	r3, [r0, #0]
     afa:	600b      	str	r3, [r1, #0]
     afc:	6001      	str	r1, [r0, #0]
     afe:	4770      	bx	lr

00000b00 <list_remove_head>:
     b00:	6803      	ldr	r3, [r0, #0]
     b02:	2b00      	cmp	r3, #0
     b04:	d003      	beq.n	b0e <list_remove_head+0xe>
     b06:	681a      	ldr	r2, [r3, #0]
     b08:	6002      	str	r2, [r0, #0]
     b0a:	0018      	movs	r0, r3
     b0c:	4770      	bx	lr
     b0e:	2000      	movs	r0, #0
     b10:	e7fc      	b.n	b0c <list_remove_head+0xc>
	...

00000b14 <ringbuffer_init>:
     b14:	b570      	push	{r4, r5, r6, lr}
     b16:	0004      	movs	r4, r0
     b18:	000e      	movs	r6, r1
     b1a:	0015      	movs	r5, r2
     b1c:	2800      	cmp	r0, #0
     b1e:	d012      	beq.n	b46 <ringbuffer_init+0x32>
     b20:	2900      	cmp	r1, #0
     b22:	d012      	beq.n	b4a <ringbuffer_init+0x36>
     b24:	2a00      	cmp	r2, #0
     b26:	d112      	bne.n	b4e <ringbuffer_init+0x3a>
     b28:	2000      	movs	r0, #0
     b2a:	2228      	movs	r2, #40	; 0x28
     b2c:	490a      	ldr	r1, [pc, #40]	; (b58 <ringbuffer_init+0x44>)
     b2e:	4b0b      	ldr	r3, [pc, #44]	; (b5c <ringbuffer_init+0x48>)
     b30:	4798      	blx	r3
     b32:	1e6b      	subs	r3, r5, #1
     b34:	422b      	tst	r3, r5
     b36:	d10c      	bne.n	b52 <ringbuffer_init+0x3e>
     b38:	6063      	str	r3, [r4, #4]
     b3a:	2300      	movs	r3, #0
     b3c:	60a3      	str	r3, [r4, #8]
     b3e:	60e3      	str	r3, [r4, #12]
     b40:	6026      	str	r6, [r4, #0]
     b42:	2000      	movs	r0, #0
     b44:	bd70      	pop	{r4, r5, r6, pc}
     b46:	2000      	movs	r0, #0
     b48:	e7ef      	b.n	b2a <ringbuffer_init+0x16>
     b4a:	2000      	movs	r0, #0
     b4c:	e7ed      	b.n	b2a <ringbuffer_init+0x16>
     b4e:	2001      	movs	r0, #1
     b50:	e7eb      	b.n	b2a <ringbuffer_init+0x16>
     b52:	200d      	movs	r0, #13
     b54:	4240      	negs	r0, r0
     b56:	e7f5      	b.n	b44 <ringbuffer_init+0x30>
     b58:	000016a0 	.word	0x000016a0
     b5c:	00000aad 	.word	0x00000aad

00000b60 <ringbuffer_get>:
     b60:	b570      	push	{r4, r5, r6, lr}
     b62:	0004      	movs	r4, r0
     b64:	000d      	movs	r5, r1
     b66:	2800      	cmp	r0, #0
     b68:	d016      	beq.n	b98 <ringbuffer_get+0x38>
     b6a:	2900      	cmp	r1, #0
     b6c:	d012      	beq.n	b94 <ringbuffer_get+0x34>
     b6e:	2001      	movs	r0, #1
     b70:	2240      	movs	r2, #64	; 0x40
     b72:	490c      	ldr	r1, [pc, #48]	; (ba4 <ringbuffer_get+0x44>)
     b74:	4b0c      	ldr	r3, [pc, #48]	; (ba8 <ringbuffer_get+0x48>)
     b76:	4798      	blx	r3
     b78:	68a3      	ldr	r3, [r4, #8]
     b7a:	68e2      	ldr	r2, [r4, #12]
     b7c:	429a      	cmp	r2, r3
     b7e:	d00d      	beq.n	b9c <ringbuffer_get+0x3c>
     b80:	6862      	ldr	r2, [r4, #4]
     b82:	4013      	ands	r3, r2
     b84:	6822      	ldr	r2, [r4, #0]
     b86:	5cd3      	ldrb	r3, [r2, r3]
     b88:	702b      	strb	r3, [r5, #0]
     b8a:	68a3      	ldr	r3, [r4, #8]
     b8c:	3301      	adds	r3, #1
     b8e:	60a3      	str	r3, [r4, #8]
     b90:	2000      	movs	r0, #0
     b92:	bd70      	pop	{r4, r5, r6, pc}
     b94:	2000      	movs	r0, #0
     b96:	e7eb      	b.n	b70 <ringbuffer_get+0x10>
     b98:	2000      	movs	r0, #0
     b9a:	e7e9      	b.n	b70 <ringbuffer_get+0x10>
     b9c:	200a      	movs	r0, #10
     b9e:	4240      	negs	r0, r0
     ba0:	e7f7      	b.n	b92 <ringbuffer_get+0x32>
     ba2:	46c0      	nop			; (mov r8, r8)
     ba4:	000016a0 	.word	0x000016a0
     ba8:	00000aad 	.word	0x00000aad

00000bac <ringbuffer_put>:
     bac:	b570      	push	{r4, r5, r6, lr}
     bae:	0004      	movs	r4, r0
     bb0:	000d      	movs	r5, r1
     bb2:	1e43      	subs	r3, r0, #1
     bb4:	4198      	sbcs	r0, r3
     bb6:	b2c0      	uxtb	r0, r0
     bb8:	2251      	movs	r2, #81	; 0x51
     bba:	490a      	ldr	r1, [pc, #40]	; (be4 <ringbuffer_put+0x38>)
     bbc:	4b0a      	ldr	r3, [pc, #40]	; (be8 <ringbuffer_put+0x3c>)
     bbe:	4798      	blx	r3
     bc0:	6863      	ldr	r3, [r4, #4]
     bc2:	68e2      	ldr	r2, [r4, #12]
     bc4:	4013      	ands	r3, r2
     bc6:	6822      	ldr	r2, [r4, #0]
     bc8:	54d5      	strb	r5, [r2, r3]
     bca:	68e3      	ldr	r3, [r4, #12]
     bcc:	68a2      	ldr	r2, [r4, #8]
     bce:	1a9a      	subs	r2, r3, r2
     bd0:	6861      	ldr	r1, [r4, #4]
     bd2:	428a      	cmp	r2, r1
     bd4:	d901      	bls.n	bda <ringbuffer_put+0x2e>
     bd6:	1a59      	subs	r1, r3, r1
     bd8:	60a1      	str	r1, [r4, #8]
     bda:	3301      	adds	r3, #1
     bdc:	60e3      	str	r3, [r4, #12]
     bde:	2000      	movs	r0, #0
     be0:	bd70      	pop	{r4, r5, r6, pc}
     be2:	46c0      	nop			; (mov r8, r8)
     be4:	000016a0 	.word	0x000016a0
     be8:	00000aad 	.word	0x00000aad

00000bec <ringbuffer_num>:
     bec:	b510      	push	{r4, lr}
     bee:	0004      	movs	r4, r0
     bf0:	1e43      	subs	r3, r0, #1
     bf2:	4198      	sbcs	r0, r3
     bf4:	b2c0      	uxtb	r0, r0
     bf6:	2267      	movs	r2, #103	; 0x67
     bf8:	4903      	ldr	r1, [pc, #12]	; (c08 <ringbuffer_num+0x1c>)
     bfa:	4b04      	ldr	r3, [pc, #16]	; (c0c <ringbuffer_num+0x20>)
     bfc:	4798      	blx	r3
     bfe:	68e0      	ldr	r0, [r4, #12]
     c00:	68a3      	ldr	r3, [r4, #8]
     c02:	1ac0      	subs	r0, r0, r3
     c04:	bd10      	pop	{r4, pc}
     c06:	46c0      	nop			; (mov r8, r8)
     c08:	000016a0 	.word	0x000016a0
     c0c:	00000aad 	.word	0x00000aad

00000c10 <_init_chip>:
     c10:	b510      	push	{r4, lr}
     c12:	4b06      	ldr	r3, [pc, #24]	; (c2c <_init_chip+0x1c>)
     c14:	685a      	ldr	r2, [r3, #4]
     c16:	605a      	str	r2, [r3, #4]
     c18:	4b05      	ldr	r3, [pc, #20]	; (c30 <_init_chip+0x20>)
     c1a:	4798      	blx	r3
     c1c:	4b05      	ldr	r3, [pc, #20]	; (c34 <_init_chip+0x24>)
     c1e:	4798      	blx	r3
     c20:	4b05      	ldr	r3, [pc, #20]	; (c38 <_init_chip+0x28>)
     c22:	4798      	blx	r3
     c24:	20ff      	movs	r0, #255	; 0xff
     c26:	4b05      	ldr	r3, [pc, #20]	; (c3c <_init_chip+0x2c>)
     c28:	4798      	blx	r3
     c2a:	bd10      	pop	{r4, pc}
     c2c:	41004000 	.word	0x41004000
     c30:	00000f11 	.word	0x00000f11
     c34:	00001365 	.word	0x00001365
     c38:	000013b1 	.word	0x000013b1
     c3c:	00000c41 	.word	0x00000c41

00000c40 <_gclk_init_generators_by_fref>:
     c40:	07c3      	lsls	r3, r0, #31
     c42:	d50a      	bpl.n	c5a <_gclk_init_generators_by_fref+0x1a>
     c44:	4b11      	ldr	r3, [pc, #68]	; (c8c <_gclk_init_generators_by_fref+0x4c>)
     c46:	2280      	movs	r2, #128	; 0x80
     c48:	0052      	lsls	r2, r2, #1
     c4a:	609a      	str	r2, [r3, #8]
     c4c:	2283      	movs	r2, #131	; 0x83
     c4e:	0252      	lsls	r2, r2, #9
     c50:	605a      	str	r2, [r3, #4]
     c52:	4b0e      	ldr	r3, [pc, #56]	; (c8c <_gclk_init_generators_by_fref+0x4c>)
     c54:	785b      	ldrb	r3, [r3, #1]
     c56:	09db      	lsrs	r3, r3, #7
     c58:	d1fb      	bne.n	c52 <_gclk_init_generators_by_fref+0x12>
     c5a:	0743      	lsls	r3, r0, #29
     c5c:	d509      	bpl.n	c72 <_gclk_init_generators_by_fref+0x32>
     c5e:	4b0b      	ldr	r3, [pc, #44]	; (c8c <_gclk_init_generators_by_fref+0x4c>)
     c60:	2281      	movs	r2, #129	; 0x81
     c62:	0052      	lsls	r2, r2, #1
     c64:	609a      	str	r2, [r3, #8]
     c66:	4a0a      	ldr	r2, [pc, #40]	; (c90 <_gclk_init_generators_by_fref+0x50>)
     c68:	605a      	str	r2, [r3, #4]
     c6a:	4b08      	ldr	r3, [pc, #32]	; (c8c <_gclk_init_generators_by_fref+0x4c>)
     c6c:	785b      	ldrb	r3, [r3, #1]
     c6e:	09db      	lsrs	r3, r3, #7
     c70:	d1fb      	bne.n	c6a <_gclk_init_generators_by_fref+0x2a>
     c72:	0703      	lsls	r3, r0, #28
     c74:	d509      	bpl.n	c8a <_gclk_init_generators_by_fref+0x4a>
     c76:	4b05      	ldr	r3, [pc, #20]	; (c8c <_gclk_init_generators_by_fref+0x4c>)
     c78:	2204      	movs	r2, #4
     c7a:	32ff      	adds	r2, #255	; 0xff
     c7c:	609a      	str	r2, [r3, #8]
     c7e:	4a05      	ldr	r2, [pc, #20]	; (c94 <_gclk_init_generators_by_fref+0x54>)
     c80:	605a      	str	r2, [r3, #4]
     c82:	4b02      	ldr	r3, [pc, #8]	; (c8c <_gclk_init_generators_by_fref+0x4c>)
     c84:	785b      	ldrb	r3, [r3, #1]
     c86:	09db      	lsrs	r3, r3, #7
     c88:	d1fb      	bne.n	c82 <_gclk_init_generators_by_fref+0x42>
     c8a:	4770      	bx	lr
     c8c:	40000c00 	.word	0x40000c00
     c90:	00010602 	.word	0x00010602
     c94:	00010603 	.word	0x00010603

00000c98 <_flash_erase_row>:
     c98:	7d03      	ldrb	r3, [r0, #20]
     c9a:	07db      	lsls	r3, r3, #31
     c9c:	d5fc      	bpl.n	c98 <_flash_erase_row>
     c9e:	2320      	movs	r3, #32
     ca0:	33ff      	adds	r3, #255	; 0xff
     ca2:	8303      	strh	r3, [r0, #24]
     ca4:	0849      	lsrs	r1, r1, #1
     ca6:	61c1      	str	r1, [r0, #28]
     ca8:	4b02      	ldr	r3, [pc, #8]	; (cb4 <_flash_erase_row+0x1c>)
     caa:	431a      	orrs	r2, r3
     cac:	b292      	uxth	r2, r2
     cae:	8002      	strh	r2, [r0, #0]
     cb0:	4770      	bx	lr
     cb2:	46c0      	nop			; (mov r8, r8)
     cb4:	ffffa500 	.word	0xffffa500

00000cb8 <_flash_program>:
     cb8:	b5f8      	push	{r3, r4, r5, r6, r7, lr}
     cba:	0004      	movs	r4, r0
     cbc:	000f      	movs	r7, r1
     cbe:	0016      	movs	r6, r2
     cc0:	001d      	movs	r5, r3
     cc2:	2001      	movs	r0, #1
     cc4:	4008      	ands	r0, r1
     cc6:	4243      	negs	r3, r0
     cc8:	4158      	adcs	r0, r3
     cca:	b2c0      	uxtb	r0, r0
     ccc:	22c5      	movs	r2, #197	; 0xc5
     cce:	0052      	lsls	r2, r2, #1
     cd0:	4915      	ldr	r1, [pc, #84]	; (d28 <_flash_program+0x70>)
     cd2:	4b16      	ldr	r3, [pc, #88]	; (d2c <_flash_program+0x74>)
     cd4:	4798      	blx	r3
     cd6:	0879      	lsrs	r1, r7, #1
     cd8:	7d23      	ldrb	r3, [r4, #20]
     cda:	07db      	lsls	r3, r3, #31
     cdc:	d5fc      	bpl.n	cd8 <_flash_program+0x20>
     cde:	4b14      	ldr	r3, [pc, #80]	; (d30 <_flash_program+0x78>)
     ce0:	8023      	strh	r3, [r4, #0]
     ce2:	7d23      	ldrb	r3, [r4, #20]
     ce4:	07db      	lsls	r3, r3, #31
     ce6:	d5fc      	bpl.n	ce2 <_flash_program+0x2a>
     ce8:	2320      	movs	r3, #32
     cea:	33ff      	adds	r3, #255	; 0xff
     cec:	8323      	strh	r3, [r4, #24]
     cee:	000a      	movs	r2, r1
     cf0:	2300      	movs	r3, #0
     cf2:	e004      	b.n	cfe <_flash_program+0x46>
     cf4:	0057      	lsls	r7, r2, #1
     cf6:	8038      	strh	r0, [r7, #0]
     cf8:	3302      	adds	r3, #2
     cfa:	b29b      	uxth	r3, r3
     cfc:	3201      	adds	r2, #1
     cfe:	42ab      	cmp	r3, r5
     d00:	d208      	bcs.n	d14 <_flash_program+0x5c>
     d02:	5cf7      	ldrb	r7, [r6, r3]
     d04:	b2b8      	uxth	r0, r7
     d06:	2b3e      	cmp	r3, #62	; 0x3e
     d08:	d8f4      	bhi.n	cf4 <_flash_program+0x3c>
     d0a:	18f0      	adds	r0, r6, r3
     d0c:	7840      	ldrb	r0, [r0, #1]
     d0e:	0200      	lsls	r0, r0, #8
     d10:	4338      	orrs	r0, r7
     d12:	e7ef      	b.n	cf4 <_flash_program+0x3c>
     d14:	7d23      	ldrb	r3, [r4, #20]
     d16:	07db      	lsls	r3, r3, #31
     d18:	d5fc      	bpl.n	d14 <_flash_program+0x5c>
     d1a:	61e1      	str	r1, [r4, #28]
     d1c:	4b05      	ldr	r3, [pc, #20]	; (d34 <_flash_program+0x7c>)
     d1e:	9a06      	ldr	r2, [sp, #24]
     d20:	4313      	orrs	r3, r2
     d22:	b29b      	uxth	r3, r3
     d24:	8023      	strh	r3, [r4, #0]
     d26:	bdf8      	pop	{r3, r4, r5, r6, r7, pc}
     d28:	000016c4 	.word	0x000016c4
     d2c:	00000aad 	.word	0x00000aad
     d30:	ffffa544 	.word	0xffffa544
     d34:	ffffa500 	.word	0xffffa500

00000d38 <_flash_init>:
     d38:	b570      	push	{r4, r5, r6, lr}
     d3a:	0005      	movs	r5, r0
     d3c:	000c      	movs	r4, r1
     d3e:	2800      	cmp	r0, #0
     d40:	d01c      	beq.n	d7c <_flash_init+0x44>
     d42:	4b10      	ldr	r3, [pc, #64]	; (d84 <_flash_init+0x4c>)
     d44:	4299      	cmp	r1, r3
     d46:	d01b      	beq.n	d80 <_flash_init+0x48>
     d48:	2000      	movs	r0, #0
     d4a:	2246      	movs	r2, #70	; 0x46
     d4c:	490e      	ldr	r1, [pc, #56]	; (d88 <_flash_init+0x50>)
     d4e:	4b0f      	ldr	r3, [pc, #60]	; (d8c <_flash_init+0x54>)
     d50:	4798      	blx	r3
     d52:	612c      	str	r4, [r5, #16]
     d54:	6862      	ldr	r2, [r4, #4]
     d56:	239e      	movs	r3, #158	; 0x9e
     d58:	4013      	ands	r3, r2
     d5a:	6063      	str	r3, [r4, #4]
     d5c:	4b0c      	ldr	r3, [pc, #48]	; (d90 <_flash_init+0x58>)
     d5e:	601d      	str	r5, [r3, #0]
 */
__STATIC_INLINE void __NVIC_DisableIRQ(IRQn_Type IRQn)
{
  if ((int32_t)(IRQn) >= 0)
  {
    NVIC->ICER[0U] = (uint32_t)(1UL << (((uint32_t)IRQn) & 0x1FUL));
     d60:	4b0c      	ldr	r3, [pc, #48]	; (d94 <_flash_init+0x5c>)
     d62:	2220      	movs	r2, #32
     d64:	2180      	movs	r1, #128	; 0x80
     d66:	505a      	str	r2, [r3, r1]
  __ASM volatile ("dsb 0xF":::"memory");
     d68:	f3bf 8f4f 	dsb	sy
  __ASM volatile ("isb 0xF":::"memory");
     d6c:	f3bf 8f6f 	isb	sy
 */
__STATIC_INLINE void __NVIC_ClearPendingIRQ(IRQn_Type IRQn)
{
  if ((int32_t)(IRQn) >= 0)
  {
    NVIC->ICPR[0U] = (uint32_t)(1UL << (((uint32_t)IRQn) & 0x1FUL));
     d70:	3101      	adds	r1, #1
     d72:	31ff      	adds	r1, #255	; 0xff
     d74:	505a      	str	r2, [r3, r1]
    NVIC->ISER[0U] = (uint32_t)(1UL << (((uint32_t)IRQn) & 0x1FUL));
     d76:	601a      	str	r2, [r3, #0]
     d78:	2000      	movs	r0, #0
     d7a:	bd70      	pop	{r4, r5, r6, pc}
     d7c:	2000      	movs	r0, #0
     d7e:	e7e4      	b.n	d4a <_flash_init+0x12>
     d80:	2001      	movs	r0, #1
     d82:	e7e2      	b.n	d4a <_flash_init+0x12>
     d84:	41004000 	.word	0x41004000
     d88:	000016c4 	.word	0x000016c4
     d8c:	00000aad 	.word	0x00000aad
     d90:	2000003c 	.word	0x2000003c
     d94:	e000e100 	.word	0xe000e100

00000d98 <_flash_get_page_size>:
     d98:	2040      	movs	r0, #64	; 0x40
     d9a:	4770      	bx	lr

00000d9c <_flash_get_total_pages>:
     d9c:	2080      	movs	r0, #128	; 0x80
     d9e:	0140      	lsls	r0, r0, #5
     da0:	4770      	bx	lr

00000da2 <_flash_read>:
     da2:	b570      	push	{r4, r5, r6, lr}
     da4:	084c      	lsrs	r4, r1, #1
     da6:	6905      	ldr	r5, [r0, #16]
     da8:	7d2e      	ldrb	r6, [r5, #20]
     daa:	07f6      	lsls	r6, r6, #31
     dac:	d5fb      	bpl.n	da6 <_flash_read+0x4>
     dae:	2020      	movs	r0, #32
     db0:	30ff      	adds	r0, #255	; 0xff
     db2:	8328      	strh	r0, [r5, #24]
     db4:	07c8      	lsls	r0, r1, #31
     db6:	d507      	bpl.n	dc8 <_flash_read+0x26>
     db8:	3401      	adds	r4, #1
     dba:	2001      	movs	r0, #1
     dbc:	4381      	bics	r1, r0
     dbe:	8809      	ldrh	r1, [r1, #0]
     dc0:	0a09      	lsrs	r1, r1, #8
     dc2:	7011      	strb	r1, [r2, #0]
     dc4:	2101      	movs	r1, #1
     dc6:	e003      	b.n	dd0 <_flash_read+0x2e>
     dc8:	2100      	movs	r1, #0
     dca:	e001      	b.n	dd0 <_flash_read+0x2e>
     dcc:	3102      	adds	r1, #2
     dce:	002c      	movs	r4, r5
     dd0:	4299      	cmp	r1, r3
     dd2:	d20b      	bcs.n	dec <_flash_read+0x4a>
     dd4:	1c65      	adds	r5, r4, #1
     dd6:	0064      	lsls	r4, r4, #1
     dd8:	8820      	ldrh	r0, [r4, #0]
     dda:	b280      	uxth	r0, r0
     ddc:	5450      	strb	r0, [r2, r1]
     dde:	1e5c      	subs	r4, r3, #1
     de0:	42a1      	cmp	r1, r4
     de2:	d2f3      	bcs.n	dcc <_flash_read+0x2a>
     de4:	1c4c      	adds	r4, r1, #1
     de6:	0a00      	lsrs	r0, r0, #8
     de8:	5510      	strb	r0, [r2, r4]
     dea:	e7ef      	b.n	dcc <_flash_read+0x2a>
     dec:	bd70      	pop	{r4, r5, r6, pc}
	...

00000df0 <_flash_write>:
     df0:	b5f0      	push	{r4, r5, r6, r7, lr}
     df2:	46de      	mov	lr, fp
     df4:	4657      	mov	r7, sl
     df6:	464e      	mov	r6, r9
     df8:	4645      	mov	r5, r8
     dfa:	b5e0      	push	{r5, r6, r7, lr}
     dfc:	b0c5      	sub	sp, #276	; 0x114
     dfe:	4681      	mov	r9, r0
     e00:	0016      	movs	r6, r2
     e02:	001d      	movs	r5, r3
     e04:	000c      	movs	r4, r1
     e06:	e048      	b.n	e9a <_flash_write+0xaa>
     e08:	4653      	mov	r3, sl
     e0a:	0199      	lsls	r1, r3, #6
     e0c:	ab04      	add	r3, sp, #16
     e0e:	185a      	adds	r2, r3, r1
     e10:	4441      	add	r1, r8
     e12:	2340      	movs	r3, #64	; 0x40
     e14:	4648      	mov	r0, r9
     e16:	4f29      	ldr	r7, [pc, #164]	; (ebc <_flash_write+0xcc>)
     e18:	47b8      	blx	r7
     e1a:	2301      	movs	r3, #1
     e1c:	469c      	mov	ip, r3
     e1e:	44e2      	add	sl, ip
     e20:	4653      	mov	r3, sl
     e22:	2b03      	cmp	r3, #3
     e24:	d9f0      	bls.n	e08 <_flash_write+0x18>
     e26:	4643      	mov	r3, r8
     e28:	1ae3      	subs	r3, r4, r3
     e2a:	0999      	lsrs	r1, r3, #6
     e2c:	223f      	movs	r2, #63	; 0x3f
     e2e:	4013      	ands	r3, r2
     e30:	e002      	b.n	e38 <_flash_write+0x48>
     e32:	3401      	adds	r4, #1
     e34:	3601      	adds	r6, #1
     e36:	3d01      	subs	r5, #1
     e38:	9a03      	ldr	r2, [sp, #12]
     e3a:	4294      	cmp	r4, r2
     e3c:	d80d      	bhi.n	e5a <_flash_write+0x6a>
     e3e:	2d00      	cmp	r5, #0
     e40:	d00b      	beq.n	e5a <_flash_write+0x6a>
     e42:	7830      	ldrb	r0, [r6, #0]
     e44:	018a      	lsls	r2, r1, #6
     e46:	af04      	add	r7, sp, #16
     e48:	46bc      	mov	ip, r7
     e4a:	4462      	add	r2, ip
     e4c:	54d0      	strb	r0, [r2, r3]
     e4e:	3301      	adds	r3, #1
     e50:	223f      	movs	r2, #63	; 0x3f
     e52:	4013      	ands	r3, r2
     e54:	d1ed      	bne.n	e32 <_flash_write+0x42>
     e56:	3101      	adds	r1, #1
     e58:	e7eb      	b.n	e32 <_flash_write+0x42>
     e5a:	2202      	movs	r2, #2
     e5c:	4641      	mov	r1, r8
     e5e:	464b      	mov	r3, r9
     e60:	6918      	ldr	r0, [r3, #16]
     e62:	4b17      	ldr	r3, [pc, #92]	; (ec0 <_flash_write+0xd0>)
     e64:	4798      	blx	r3
     e66:	2300      	movs	r3, #0
     e68:	469a      	mov	sl, r3
     e6a:	e00e      	b.n	e8a <_flash_write+0x9a>
     e6c:	4653      	mov	r3, sl
     e6e:	0199      	lsls	r1, r3, #6
     e70:	ab04      	add	r3, sp, #16
     e72:	185a      	adds	r2, r3, r1
     e74:	4441      	add	r1, r8
     e76:	2304      	movs	r3, #4
     e78:	9300      	str	r3, [sp, #0]
     e7a:	333c      	adds	r3, #60	; 0x3c
     e7c:	4648      	mov	r0, r9
     e7e:	6900      	ldr	r0, [r0, #16]
     e80:	4f10      	ldr	r7, [pc, #64]	; (ec4 <_flash_write+0xd4>)
     e82:	47b8      	blx	r7
     e84:	2301      	movs	r3, #1
     e86:	469c      	mov	ip, r3
     e88:	44e2      	add	sl, ip
     e8a:	4653      	mov	r3, sl
     e8c:	2b03      	cmp	r3, #3
     e8e:	d9ed      	bls.n	e6c <_flash_write+0x7c>
     e90:	192b      	adds	r3, r5, r4
     e92:	3b01      	subs	r3, #1
     e94:	9a03      	ldr	r2, [sp, #12]
     e96:	429a      	cmp	r2, r3
     e98:	d209      	bcs.n	eae <_flash_write+0xbe>
     e9a:	23ff      	movs	r3, #255	; 0xff
     e9c:	0022      	movs	r2, r4
     e9e:	439a      	bics	r2, r3
     ea0:	4690      	mov	r8, r2
     ea2:	0017      	movs	r7, r2
     ea4:	37ff      	adds	r7, #255	; 0xff
     ea6:	9703      	str	r7, [sp, #12]
     ea8:	2300      	movs	r3, #0
     eaa:	469a      	mov	sl, r3
     eac:	e7b8      	b.n	e20 <_flash_write+0x30>
     eae:	b045      	add	sp, #276	; 0x114
     eb0:	bc3c      	pop	{r2, r3, r4, r5}
     eb2:	4690      	mov	r8, r2
     eb4:	4699      	mov	r9, r3
     eb6:	46a2      	mov	sl, r4
     eb8:	46ab      	mov	fp, r5
     eba:	bdf0      	pop	{r4, r5, r6, r7, pc}
     ebc:	00000da3 	.word	0x00000da3
     ec0:	00000c99 	.word	0x00000c99
     ec4:	00000cb9 	.word	0x00000cb9

00000ec8 <_flash_is_locked>:
     ec8:	0b89      	lsrs	r1, r1, #14
     eca:	6902      	ldr	r2, [r0, #16]
     ecc:	0409      	lsls	r1, r1, #16
     ece:	0c09      	lsrs	r1, r1, #16
     ed0:	2301      	movs	r3, #1
     ed2:	408b      	lsls	r3, r1
     ed4:	8c10      	ldrh	r0, [r2, #32]
     ed6:	4018      	ands	r0, r3
     ed8:	4243      	negs	r3, r0
     eda:	4158      	adcs	r0, r3
     edc:	b2c0      	uxtb	r0, r0
     ede:	4770      	bx	lr

00000ee0 <NVMCTRL_Handler>:
     ee0:	b510      	push	{r4, lr}
     ee2:	4b0a      	ldr	r3, [pc, #40]	; (f0c <NVMCTRL_Handler+0x2c>)
     ee4:	6818      	ldr	r0, [r3, #0]
     ee6:	6903      	ldr	r3, [r0, #16]
     ee8:	7d1a      	ldrb	r2, [r3, #20]
     eea:	07d2      	lsls	r2, r2, #31
     eec:	d504      	bpl.n	ef8 <NVMCTRL_Handler+0x18>
     eee:	6803      	ldr	r3, [r0, #0]
     ef0:	2b00      	cmp	r3, #0
     ef2:	d000      	beq.n	ef6 <NVMCTRL_Handler+0x16>
     ef4:	4798      	blx	r3
     ef6:	bd10      	pop	{r4, pc}
     ef8:	7d1a      	ldrb	r2, [r3, #20]
     efa:	0792      	lsls	r2, r2, #30
     efc:	d5fb      	bpl.n	ef6 <NVMCTRL_Handler+0x16>
     efe:	2202      	movs	r2, #2
     f00:	751a      	strb	r2, [r3, #20]
     f02:	6843      	ldr	r3, [r0, #4]
     f04:	2b00      	cmp	r3, #0
     f06:	d0f6      	beq.n	ef6 <NVMCTRL_Handler+0x16>
     f08:	4798      	blx	r3
     f0a:	e7f4      	b.n	ef6 <NVMCTRL_Handler+0x16>
     f0c:	2000003c 	.word	0x2000003c

00000f10 <_pm_init>:
     f10:	4b06      	ldr	r3, [pc, #24]	; (f2c <_pm_init+0x1c>)
     f12:	7a1a      	ldrb	r2, [r3, #8]
     f14:	b2d2      	uxtb	r2, r2
     f16:	721a      	strb	r2, [r3, #8]
     f18:	7a5a      	ldrb	r2, [r3, #9]
     f1a:	b2d2      	uxtb	r2, r2
     f1c:	725a      	strb	r2, [r3, #9]
     f1e:	7a9a      	ldrb	r2, [r3, #10]
     f20:	b2d2      	uxtb	r2, r2
     f22:	729a      	strb	r2, [r3, #10]
     f24:	7ada      	ldrb	r2, [r3, #11]
     f26:	b2d2      	uxtb	r2, r2
     f28:	72da      	strb	r2, [r3, #11]
     f2a:	4770      	bx	lr
     f2c:	40000400 	.word	0x40000400

00000f30 <_rtc_timer_interrupt_handler>:
     f30:	b510      	push	{r4, lr}
     f32:	0004      	movs	r4, r0
     f34:	68c3      	ldr	r3, [r0, #12]
     f36:	7a1b      	ldrb	r3, [r3, #8]
     f38:	07db      	lsls	r3, r3, #31
     f3a:	d506      	bpl.n	f4a <_rtc_timer_interrupt_handler+0x1a>
     f3c:	6803      	ldr	r3, [r0, #0]
     f3e:	2b00      	cmp	r3, #0
     f40:	d000      	beq.n	f44 <_rtc_timer_interrupt_handler+0x14>
     f42:	4798      	blx	r3
     f44:	68e3      	ldr	r3, [r4, #12]
     f46:	2201      	movs	r2, #1
     f48:	721a      	strb	r2, [r3, #8]
     f4a:	bd10      	pop	{r4, pc}

00000f4c <_timer_init>:
     f4c:	b570      	push	{r4, r5, r6, lr}
     f4e:	0004      	movs	r4, r0
     f50:	000d      	movs	r5, r1
     f52:	1e43      	subs	r3, r0, #1
     f54:	4198      	sbcs	r0, r3
     f56:	b2c0      	uxtb	r0, r0
     f58:	2233      	movs	r2, #51	; 0x33
     f5a:	4910      	ldr	r1, [pc, #64]	; (f9c <_timer_init+0x50>)
     f5c:	4b10      	ldr	r3, [pc, #64]	; (fa0 <_timer_init+0x54>)
     f5e:	4798      	blx	r3
     f60:	60e5      	str	r5, [r4, #12]
     f62:	2301      	movs	r3, #1
     f64:	802b      	strh	r3, [r5, #0]
     f66:	7aab      	ldrb	r3, [r5, #10]
     f68:	09db      	lsrs	r3, r3, #7
     f6a:	d1fc      	bne.n	f66 <_timer_init+0x1a>
     f6c:	68e2      	ldr	r2, [r4, #12]
     f6e:	7a93      	ldrb	r3, [r2, #10]
     f70:	09db      	lsrs	r3, r3, #7
     f72:	d1fc      	bne.n	f6e <_timer_init+0x22>
     f74:	3380      	adds	r3, #128	; 0x80
     f76:	8013      	strh	r3, [r2, #0]
     f78:	7a93      	ldrb	r3, [r2, #10]
     f7a:	09db      	lsrs	r3, r3, #7
     f7c:	d1fc      	bne.n	f78 <_timer_init+0x2c>
     f7e:	68e2      	ldr	r2, [r4, #12]
     f80:	6993      	ldr	r3, [r2, #24]
     f82:	2380      	movs	r3, #128	; 0x80
     f84:	00db      	lsls	r3, r3, #3
     f86:	6193      	str	r3, [r2, #24]
     f88:	7a93      	ldrb	r3, [r2, #10]
     f8a:	09db      	lsrs	r3, r3, #7
     f8c:	d1fc      	bne.n	f88 <_timer_init+0x3c>
     f8e:	3301      	adds	r3, #1
     f90:	68e2      	ldr	r2, [r4, #12]
     f92:	71d3      	strb	r3, [r2, #7]
     f94:	4b03      	ldr	r3, [pc, #12]	; (fa4 <_timer_init+0x58>)
     f96:	601c      	str	r4, [r3, #0]
     f98:	2000      	movs	r0, #0
     f9a:	bd70      	pop	{r4, r5, r6, pc}
     f9c:	000016e4 	.word	0x000016e4
     fa0:	00000aad 	.word	0x00000aad
     fa4:	20000040 	.word	0x20000040

00000fa8 <_timer_start>:
     fa8:	b510      	push	{r4, lr}
     faa:	1e04      	subs	r4, r0, #0
     fac:	d020      	beq.n	ff0 <_timer_start+0x48>
     fae:	68c3      	ldr	r3, [r0, #12]
     fb0:	2b00      	cmp	r3, #0
     fb2:	d01b      	beq.n	fec <_timer_start+0x44>
     fb4:	2001      	movs	r0, #1
     fb6:	226a      	movs	r2, #106	; 0x6a
     fb8:	490e      	ldr	r1, [pc, #56]	; (ff4 <_timer_start+0x4c>)
     fba:	4b0f      	ldr	r3, [pc, #60]	; (ff8 <_timer_start+0x50>)
     fbc:	4798      	blx	r3
     fbe:	2208      	movs	r2, #8
     fc0:	4b0e      	ldr	r3, [pc, #56]	; (ffc <_timer_start+0x54>)
     fc2:	601a      	str	r2, [r3, #0]
     fc4:	68e2      	ldr	r2, [r4, #12]
     fc6:	6913      	ldr	r3, [r2, #16]
     fc8:	2300      	movs	r3, #0
     fca:	6113      	str	r3, [r2, #16]
     fcc:	7a93      	ldrb	r3, [r2, #10]
     fce:	09db      	lsrs	r3, r3, #7
     fd0:	d1fc      	bne.n	fcc <_timer_start+0x24>
     fd2:	68e2      	ldr	r2, [r4, #12]
     fd4:	7a93      	ldrb	r3, [r2, #10]
     fd6:	09db      	lsrs	r3, r3, #7
     fd8:	d1fc      	bne.n	fd4 <_timer_start+0x2c>
     fda:	8813      	ldrh	r3, [r2, #0]
     fdc:	2102      	movs	r1, #2
     fde:	430b      	orrs	r3, r1
     fe0:	b29b      	uxth	r3, r3
     fe2:	8013      	strh	r3, [r2, #0]
     fe4:	7a93      	ldrb	r3, [r2, #10]
     fe6:	09db      	lsrs	r3, r3, #7
     fe8:	d1fc      	bne.n	fe4 <_timer_start+0x3c>
     fea:	bd10      	pop	{r4, pc}
     fec:	2000      	movs	r0, #0
     fee:	e7e2      	b.n	fb6 <_timer_start+0xe>
     ff0:	2000      	movs	r0, #0
     ff2:	e7e0      	b.n	fb6 <_timer_start+0xe>
     ff4:	000016e4 	.word	0x000016e4
     ff8:	00000aad 	.word	0x00000aad
     ffc:	e000e100 	.word	0xe000e100

00001000 <_timer_is_started>:
    1000:	68c2      	ldr	r2, [r0, #12]
    1002:	7a93      	ldrb	r3, [r2, #10]
    1004:	09db      	lsrs	r3, r3, #7
    1006:	d1fc      	bne.n	1002 <_timer_is_started+0x2>
    1008:	8813      	ldrh	r3, [r2, #0]
    100a:	085b      	lsrs	r3, r3, #1
    100c:	2001      	movs	r0, #1
    100e:	4018      	ands	r0, r3
    1010:	4770      	bx	lr

00001012 <_timer_set_irq>:
    1012:	4770      	bx	lr

00001014 <_rtc_get_timer>:
    1014:	2000      	movs	r0, #0
    1016:	4770      	bx	lr

00001018 <RTC_Handler>:
    1018:	b510      	push	{r4, lr}
    101a:	4b02      	ldr	r3, [pc, #8]	; (1024 <RTC_Handler+0xc>)
    101c:	6818      	ldr	r0, [r3, #0]
    101e:	4b02      	ldr	r3, [pc, #8]	; (1028 <RTC_Handler+0x10>)
    1020:	4798      	blx	r3
    1022:	bd10      	pop	{r4, pc}
    1024:	20000040 	.word	0x20000040
    1028:	00000f31 	.word	0x00000f31

0000102c <_sercom_get_hardware_index>:
    102c:	4b02      	ldr	r3, [pc, #8]	; (1038 <_sercom_get_hardware_index+0xc>)
    102e:	469c      	mov	ip, r3
    1030:	4460      	add	r0, ip
    1032:	0a80      	lsrs	r0, r0, #10
    1034:	b2c0      	uxtb	r0, r0
    1036:	4770      	bx	lr
    1038:	bdfff800 	.word	0xbdfff800

0000103c <_sercom_usart_interrupt_handler>:
    103c:	b510      	push	{r4, lr}
    103e:	6984      	ldr	r4, [r0, #24]
    1040:	7e23      	ldrb	r3, [r4, #24]
    1042:	07db      	lsls	r3, r3, #31
    1044:	d502      	bpl.n	104c <_sercom_usart_interrupt_handler+0x10>
    1046:	7da3      	ldrb	r3, [r4, #22]
    1048:	07db      	lsls	r3, r3, #31
    104a:	d40f      	bmi.n	106c <_sercom_usart_interrupt_handler+0x30>
    104c:	7e23      	ldrb	r3, [r4, #24]
    104e:	079b      	lsls	r3, r3, #30
    1050:	d502      	bpl.n	1058 <_sercom_usart_interrupt_handler+0x1c>
    1052:	7da3      	ldrb	r3, [r4, #22]
    1054:	079b      	lsls	r3, r3, #30
    1056:	d40e      	bmi.n	1076 <_sercom_usart_interrupt_handler+0x3a>
    1058:	7e23      	ldrb	r3, [r4, #24]
    105a:	075b      	lsls	r3, r3, #29
    105c:	d515      	bpl.n	108a <_sercom_usart_interrupt_handler+0x4e>
    105e:	8b62      	ldrh	r2, [r4, #26]
    1060:	2337      	movs	r3, #55	; 0x37
    1062:	421a      	tst	r2, r3
    1064:	d00c      	beq.n	1080 <_sercom_usart_interrupt_handler+0x44>
    1066:	3308      	adds	r3, #8
    1068:	8363      	strh	r3, [r4, #26]
    106a:	bd10      	pop	{r4, pc}
    106c:	2301      	movs	r3, #1
    106e:	7523      	strb	r3, [r4, #20]
    1070:	6803      	ldr	r3, [r0, #0]
    1072:	4798      	blx	r3
    1074:	e7f9      	b.n	106a <_sercom_usart_interrupt_handler+0x2e>
    1076:	2302      	movs	r3, #2
    1078:	7523      	strb	r3, [r4, #20]
    107a:	6883      	ldr	r3, [r0, #8]
    107c:	4798      	blx	r3
    107e:	e7f4      	b.n	106a <_sercom_usart_interrupt_handler+0x2e>
    1080:	6843      	ldr	r3, [r0, #4]
    1082:	8d21      	ldrh	r1, [r4, #40]	; 0x28
    1084:	b2c9      	uxtb	r1, r1
    1086:	4798      	blx	r3
    1088:	e7ef      	b.n	106a <_sercom_usart_interrupt_handler+0x2e>
    108a:	7e23      	ldrb	r3, [r4, #24]
    108c:	09db      	lsrs	r3, r3, #7
    108e:	d0ec      	beq.n	106a <_sercom_usart_interrupt_handler+0x2e>
    1090:	2380      	movs	r3, #128	; 0x80
    1092:	7623      	strb	r3, [r4, #24]
    1094:	68c3      	ldr	r3, [r0, #12]
    1096:	4798      	blx	r3
    1098:	8b63      	ldrh	r3, [r4, #26]
    109a:	b29b      	uxth	r3, r3
    109c:	8363      	strh	r3, [r4, #26]
    109e:	e7e4      	b.n	106a <_sercom_usart_interrupt_handler+0x2e>

000010a0 <_sercom_init_irq_param>:
    10a0:	4b06      	ldr	r3, [pc, #24]	; (10bc <_sercom_init_irq_param+0x1c>)
    10a2:	4298      	cmp	r0, r3
    10a4:	d003      	beq.n	10ae <_sercom_init_irq_param+0xe>
    10a6:	4b06      	ldr	r3, [pc, #24]	; (10c0 <_sercom_init_irq_param+0x20>)
    10a8:	4298      	cmp	r0, r3
    10aa:	d003      	beq.n	10b4 <_sercom_init_irq_param+0x14>
    10ac:	4770      	bx	lr
    10ae:	4b05      	ldr	r3, [pc, #20]	; (10c4 <_sercom_init_irq_param+0x24>)
    10b0:	6019      	str	r1, [r3, #0]
    10b2:	e7f8      	b.n	10a6 <_sercom_init_irq_param+0x6>
    10b4:	4b03      	ldr	r3, [pc, #12]	; (10c4 <_sercom_init_irq_param+0x24>)
    10b6:	6059      	str	r1, [r3, #4]
    10b8:	e7f8      	b.n	10ac <_sercom_init_irq_param+0xc>
    10ba:	46c0      	nop			; (mov r8, r8)
    10bc:	42000800 	.word	0x42000800
    10c0:	42001400 	.word	0x42001400
    10c4:	20000044 	.word	0x20000044

000010c8 <_sercom_get_irq_num>:
    10c8:	b510      	push	{r4, lr}
    10ca:	4b02      	ldr	r3, [pc, #8]	; (10d4 <_sercom_get_irq_num+0xc>)
    10cc:	4798      	blx	r3
    10ce:	3009      	adds	r0, #9
    10d0:	b2c0      	uxtb	r0, r0
    10d2:	bd10      	pop	{r4, pc}
    10d4:	0000102d 	.word	0x0000102d

000010d8 <_get_sercom_index>:
    10d8:	b510      	push	{r4, lr}
    10da:	4b0c      	ldr	r3, [pc, #48]	; (110c <_get_sercom_index+0x34>)
    10dc:	4798      	blx	r3
    10de:	0001      	movs	r1, r0
    10e0:	2000      	movs	r0, #0
    10e2:	2801      	cmp	r0, #1
    10e4:	d809      	bhi.n	10fa <_get_sercom_index+0x22>
    10e6:	0083      	lsls	r3, r0, #2
    10e8:	181b      	adds	r3, r3, r0
    10ea:	009a      	lsls	r2, r3, #2
    10ec:	4b08      	ldr	r3, [pc, #32]	; (1110 <_get_sercom_index+0x38>)
    10ee:	5cd3      	ldrb	r3, [r2, r3]
    10f0:	4299      	cmp	r1, r3
    10f2:	d009      	beq.n	1108 <_get_sercom_index+0x30>
    10f4:	3001      	adds	r0, #1
    10f6:	b2c0      	uxtb	r0, r0
    10f8:	e7f3      	b.n	10e2 <_get_sercom_index+0xa>
    10fa:	2298      	movs	r2, #152	; 0x98
    10fc:	0092      	lsls	r2, r2, #2
    10fe:	4905      	ldr	r1, [pc, #20]	; (1114 <_get_sercom_index+0x3c>)
    1100:	2000      	movs	r0, #0
    1102:	4b05      	ldr	r3, [pc, #20]	; (1118 <_get_sercom_index+0x40>)
    1104:	4798      	blx	r3
    1106:	2000      	movs	r0, #0
    1108:	bd10      	pop	{r4, pc}
    110a:	46c0      	nop			; (mov r8, r8)
    110c:	0000102d 	.word	0x0000102d
    1110:	000016fc 	.word	0x000016fc
    1114:	00001760 	.word	0x00001760
    1118:	00000aad 	.word	0x00000aad

0000111c <_usart_init>:
    111c:	b570      	push	{r4, r5, r6, lr}
    111e:	0004      	movs	r4, r0
    1120:	4b38      	ldr	r3, [pc, #224]	; (1204 <_usart_init+0xe8>)
    1122:	4798      	blx	r3
    1124:	69e3      	ldr	r3, [r4, #28]
    1126:	07db      	lsls	r3, r3, #31
    1128:	d41d      	bmi.n	1166 <_usart_init+0x4a>
    112a:	0083      	lsls	r3, r0, #2
    112c:	181b      	adds	r3, r3, r0
    112e:	009a      	lsls	r2, r3, #2
    1130:	4b35      	ldr	r3, [pc, #212]	; (1208 <_usart_init+0xec>)
    1132:	189b      	adds	r3, r3, r2
    1134:	685a      	ldr	r2, [r3, #4]
    1136:	231c      	movs	r3, #28
    1138:	401a      	ands	r2, r3
    113a:	69e3      	ldr	r3, [r4, #28]
    113c:	079b      	lsls	r3, r3, #30
    113e:	d1fc      	bne.n	113a <_usart_init+0x1e>
    1140:	6823      	ldr	r3, [r4, #0]
    1142:	079b      	lsls	r3, r3, #30
    1144:	d509      	bpl.n	115a <_usart_init+0x3e>
    1146:	6823      	ldr	r3, [r4, #0]
    1148:	2102      	movs	r1, #2
    114a:	438b      	bics	r3, r1
    114c:	6023      	str	r3, [r4, #0]
    114e:	69e3      	ldr	r3, [r4, #28]
    1150:	079b      	lsls	r3, r3, #30
    1152:	d1fc      	bne.n	114e <_usart_init+0x32>
    1154:	69e3      	ldr	r3, [r4, #28]
    1156:	079b      	lsls	r3, r3, #30
    1158:	d4fc      	bmi.n	1154 <_usart_init+0x38>
    115a:	2301      	movs	r3, #1
    115c:	4313      	orrs	r3, r2
    115e:	6023      	str	r3, [r4, #0]
    1160:	69e3      	ldr	r3, [r4, #28]
    1162:	079b      	lsls	r3, r3, #30
    1164:	d1fc      	bne.n	1160 <_usart_init+0x44>
    1166:	69e3      	ldr	r3, [r4, #28]
    1168:	07db      	lsls	r3, r3, #31
    116a:	d4fc      	bmi.n	1166 <_usart_init+0x4a>
    116c:	0083      	lsls	r3, r0, #2
    116e:	181b      	adds	r3, r3, r0
    1170:	009a      	lsls	r2, r3, #2
    1172:	4b25      	ldr	r3, [pc, #148]	; (1208 <_usart_init+0xec>)
    1174:	189b      	adds	r3, r3, r2
    1176:	685b      	ldr	r3, [r3, #4]
    1178:	6023      	str	r3, [r4, #0]
    117a:	69e3      	ldr	r3, [r4, #28]
    117c:	079b      	lsls	r3, r3, #30
    117e:	d1fc      	bne.n	117a <_usart_init+0x5e>
    1180:	0083      	lsls	r3, r0, #2
    1182:	181b      	adds	r3, r3, r0
    1184:	009a      	lsls	r2, r3, #2
    1186:	4b20      	ldr	r3, [pc, #128]	; (1208 <_usart_init+0xec>)
    1188:	189b      	adds	r3, r3, r2
    118a:	689b      	ldr	r3, [r3, #8]
    118c:	6063      	str	r3, [r4, #4]
    118e:	69e3      	ldr	r3, [r4, #28]
    1190:	075b      	lsls	r3, r3, #29
    1192:	d1fc      	bne.n	118e <_usart_init+0x72>
    1194:	0083      	lsls	r3, r0, #2
    1196:	181b      	adds	r3, r3, r0
    1198:	009a      	lsls	r2, r3, #2
    119a:	4b1b      	ldr	r3, [pc, #108]	; (1208 <_usart_init+0xec>)
    119c:	189b      	adds	r3, r3, r2
    119e:	685b      	ldr	r3, [r3, #4]
    11a0:	049a      	lsls	r2, r3, #18
    11a2:	d40b      	bmi.n	11bc <_usart_init+0xa0>
    11a4:	22c0      	movs	r2, #192	; 0xc0
    11a6:	01d2      	lsls	r2, r2, #7
    11a8:	4213      	tst	r3, r2
    11aa:	d107      	bne.n	11bc <_usart_init+0xa0>
    11ac:	0083      	lsls	r3, r0, #2
    11ae:	181b      	adds	r3, r3, r0
    11b0:	009a      	lsls	r2, r3, #2
    11b2:	4b15      	ldr	r3, [pc, #84]	; (1208 <_usart_init+0xec>)
    11b4:	189b      	adds	r3, r3, r2
    11b6:	899b      	ldrh	r3, [r3, #12]
    11b8:	81a3      	strh	r3, [r4, #12]
    11ba:	e015      	b.n	11e8 <_usart_init+0xcc>
    11bc:	0083      	lsls	r3, r0, #2
    11be:	181b      	adds	r3, r3, r0
    11c0:	009a      	lsls	r2, r3, #2
    11c2:	4911      	ldr	r1, [pc, #68]	; (1208 <_usart_init+0xec>)
    11c4:	1889      	adds	r1, r1, r2
    11c6:	898a      	ldrh	r2, [r1, #12]
    11c8:	89a3      	ldrh	r3, [r4, #12]
    11ca:	04d2      	lsls	r2, r2, #19
    11cc:	0cd2      	lsrs	r2, r2, #19
    11ce:	0b5b      	lsrs	r3, r3, #13
    11d0:	035b      	lsls	r3, r3, #13
    11d2:	4313      	orrs	r3, r2
    11d4:	81a3      	strh	r3, [r4, #12]
    11d6:	7b8b      	ldrb	r3, [r1, #14]
    11d8:	2207      	movs	r2, #7
    11da:	401a      	ands	r2, r3
    11dc:	89a3      	ldrh	r3, [r4, #12]
    11de:	0352      	lsls	r2, r2, #13
    11e0:	04db      	lsls	r3, r3, #19
    11e2:	0cdb      	lsrs	r3, r3, #19
    11e4:	4313      	orrs	r3, r2
    11e6:	81a3      	strh	r3, [r4, #12]
    11e8:	4a07      	ldr	r2, [pc, #28]	; (1208 <_usart_init+0xec>)
    11ea:	0083      	lsls	r3, r0, #2
    11ec:	181d      	adds	r5, r3, r0
    11ee:	00a9      	lsls	r1, r5, #2
    11f0:	000d      	movs	r5, r1
    11f2:	1851      	adds	r1, r2, r1
    11f4:	7bc9      	ldrb	r1, [r1, #15]
    11f6:	73a1      	strb	r1, [r4, #14]
    11f8:	1952      	adds	r2, r2, r5
    11fa:	7c12      	ldrb	r2, [r2, #16]
    11fc:	2330      	movs	r3, #48	; 0x30
    11fe:	54e2      	strb	r2, [r4, r3]
    1200:	2000      	movs	r0, #0
    1202:	bd70      	pop	{r4, r5, r6, pc}
    1204:	000010d9 	.word	0x000010d9
    1208:	000016fc 	.word	0x000016fc

0000120c <_usart_async_init>:
    120c:	b570      	push	{r4, r5, r6, lr}
    120e:	0006      	movs	r6, r0
    1210:	000c      	movs	r4, r1
    1212:	1e43      	subs	r3, r0, #1
    1214:	4198      	sbcs	r0, r3
    1216:	b2c0      	uxtb	r0, r0
    1218:	22c6      	movs	r2, #198	; 0xc6
    121a:	4919      	ldr	r1, [pc, #100]	; (1280 <_usart_async_init+0x74>)
    121c:	4b19      	ldr	r3, [pc, #100]	; (1284 <_usart_async_init+0x78>)
    121e:	4798      	blx	r3
    1220:	0020      	movs	r0, r4
    1222:	4b19      	ldr	r3, [pc, #100]	; (1288 <_usart_async_init+0x7c>)
    1224:	4798      	blx	r3
    1226:	1e05      	subs	r5, r0, #0
    1228:	d001      	beq.n	122e <_usart_async_init+0x22>
    122a:	0028      	movs	r0, r5
    122c:	bd70      	pop	{r4, r5, r6, pc}
    122e:	61b4      	str	r4, [r6, #24]
    1230:	0031      	movs	r1, r6
    1232:	0020      	movs	r0, r4
    1234:	4b15      	ldr	r3, [pc, #84]	; (128c <_usart_async_init+0x80>)
    1236:	4798      	blx	r3
    1238:	0020      	movs	r0, r4
    123a:	4b15      	ldr	r3, [pc, #84]	; (1290 <_usart_async_init+0x84>)
    123c:	4798      	blx	r3
    123e:	b243      	sxtb	r3, r0
  if ((int32_t)(IRQn) >= 0)
    1240:	2b00      	cmp	r3, #0
    1242:	db0a      	blt.n	125a <_usart_async_init+0x4e>
    NVIC->ICER[0U] = (uint32_t)(1UL << (((uint32_t)IRQn) & 0x1FUL));
    1244:	211f      	movs	r1, #31
    1246:	4001      	ands	r1, r0
    1248:	2201      	movs	r2, #1
    124a:	408a      	lsls	r2, r1
    124c:	2180      	movs	r1, #128	; 0x80
    124e:	4c11      	ldr	r4, [pc, #68]	; (1294 <_usart_async_init+0x88>)
    1250:	5062      	str	r2, [r4, r1]
  __ASM volatile ("dsb 0xF":::"memory");
    1252:	f3bf 8f4f 	dsb	sy
  __ASM volatile ("isb 0xF":::"memory");
    1256:	f3bf 8f6f 	isb	sy
  if ((int32_t)(IRQn) >= 0)
    125a:	2b00      	cmp	r3, #0
    125c:	db07      	blt.n	126e <_usart_async_init+0x62>
    NVIC->ICPR[0U] = (uint32_t)(1UL << (((uint32_t)IRQn) & 0x1FUL));
    125e:	211f      	movs	r1, #31
    1260:	4001      	ands	r1, r0
    1262:	2201      	movs	r2, #1
    1264:	408a      	lsls	r2, r1
    1266:	21c0      	movs	r1, #192	; 0xc0
    1268:	0049      	lsls	r1, r1, #1
    126a:	4c0a      	ldr	r4, [pc, #40]	; (1294 <_usart_async_init+0x88>)
    126c:	5062      	str	r2, [r4, r1]
  if ((int32_t)(IRQn) >= 0)
    126e:	2b00      	cmp	r3, #0
    1270:	dbdb      	blt.n	122a <_usart_async_init+0x1e>
    NVIC->ISER[0U] = (uint32_t)(1UL << (((uint32_t)IRQn) & 0x1FUL));
    1272:	231f      	movs	r3, #31
    1274:	4018      	ands	r0, r3
    1276:	3b1e      	subs	r3, #30
    1278:	4083      	lsls	r3, r0
    127a:	4a06      	ldr	r2, [pc, #24]	; (1294 <_usart_async_init+0x88>)
    127c:	6013      	str	r3, [r2, #0]
    127e:	e7d4      	b.n	122a <_usart_async_init+0x1e>
    1280:	00001760 	.word	0x00001760
    1284:	00000aad 	.word	0x00000aad
    1288:	0000111d 	.word	0x0000111d
    128c:	000010a1 	.word	0x000010a1
    1290:	000010c9 	.word	0x000010c9
    1294:	e000e100 	.word	0xe000e100

00001298 <_usart_async_enable>:
    1298:	6982      	ldr	r2, [r0, #24]
    129a:	6813      	ldr	r3, [r2, #0]
    129c:	2102      	movs	r1, #2
    129e:	430b      	orrs	r3, r1
    12a0:	6013      	str	r3, [r2, #0]
    12a2:	69d3      	ldr	r3, [r2, #28]
    12a4:	079b      	lsls	r3, r3, #30
    12a6:	d1fc      	bne.n	12a2 <_usart_async_enable+0xa>
    12a8:	4770      	bx	lr

000012aa <_usart_async_write_byte>:
    12aa:	6983      	ldr	r3, [r0, #24]
    12ac:	b289      	uxth	r1, r1
    12ae:	8519      	strh	r1, [r3, #40]	; 0x28
    12b0:	4770      	bx	lr

000012b2 <_usart_async_enable_byte_sent_irq>:
    12b2:	6983      	ldr	r3, [r0, #24]
    12b4:	2201      	movs	r2, #1
    12b6:	759a      	strb	r2, [r3, #22]
    12b8:	4770      	bx	lr

000012ba <_usart_async_enable_tx_done_irq>:
    12ba:	6983      	ldr	r3, [r0, #24]
    12bc:	2202      	movs	r2, #2
    12be:	759a      	strb	r2, [r3, #22]
    12c0:	4770      	bx	lr
	...

000012c4 <_usart_async_set_irq_state>:
    12c4:	b570      	push	{r4, r5, r6, lr}
    12c6:	0004      	movs	r4, r0
    12c8:	000d      	movs	r5, r1
    12ca:	0016      	movs	r6, r2
    12cc:	1e43      	subs	r3, r0, #1
    12ce:	4198      	sbcs	r0, r3
    12d0:	b2c0      	uxtb	r0, r0
    12d2:	2288      	movs	r2, #136	; 0x88
    12d4:	0092      	lsls	r2, r2, #2
    12d6:	4917      	ldr	r1, [pc, #92]	; (1334 <_usart_async_set_irq_state+0x70>)
    12d8:	4b17      	ldr	r3, [pc, #92]	; (1338 <_usart_async_set_irq_state+0x74>)
    12da:	4798      	blx	r3
    12dc:	2d00      	cmp	r5, #0
    12de:	d00b      	beq.n	12f8 <_usart_async_set_irq_state+0x34>
    12e0:	2d02      	cmp	r5, #2
    12e2:	d009      	beq.n	12f8 <_usart_async_set_irq_state+0x34>
    12e4:	2d01      	cmp	r5, #1
    12e6:	d018      	beq.n	131a <_usart_async_set_irq_state+0x56>
    12e8:	2d03      	cmp	r5, #3
    12ea:	d10f      	bne.n	130c <_usart_async_set_irq_state+0x48>
    12ec:	69a3      	ldr	r3, [r4, #24]
    12ee:	2e00      	cmp	r6, #0
    12f0:	d01c      	beq.n	132c <_usart_async_set_irq_state+0x68>
    12f2:	2280      	movs	r2, #128	; 0x80
    12f4:	759a      	strb	r2, [r3, #22]
    12f6:	e009      	b.n	130c <_usart_async_set_irq_state+0x48>
    12f8:	69a3      	ldr	r3, [r4, #24]
    12fa:	2e00      	cmp	r6, #0
    12fc:	d107      	bne.n	130e <_usart_async_set_irq_state+0x4a>
    12fe:	2201      	movs	r2, #1
    1300:	751a      	strb	r2, [r3, #20]
    1302:	69a3      	ldr	r3, [r4, #24]
    1304:	2e00      	cmp	r6, #0
    1306:	d105      	bne.n	1314 <_usart_async_set_irq_state+0x50>
    1308:	2202      	movs	r2, #2
    130a:	751a      	strb	r2, [r3, #20]
    130c:	bd70      	pop	{r4, r5, r6, pc}
    130e:	2201      	movs	r2, #1
    1310:	759a      	strb	r2, [r3, #22]
    1312:	e7f6      	b.n	1302 <_usart_async_set_irq_state+0x3e>
    1314:	2202      	movs	r2, #2
    1316:	759a      	strb	r2, [r3, #22]
    1318:	e7f8      	b.n	130c <_usart_async_set_irq_state+0x48>
    131a:	69a3      	ldr	r3, [r4, #24]
    131c:	2e00      	cmp	r6, #0
    131e:	d102      	bne.n	1326 <_usart_async_set_irq_state+0x62>
    1320:	2204      	movs	r2, #4
    1322:	751a      	strb	r2, [r3, #20]
    1324:	e7f2      	b.n	130c <_usart_async_set_irq_state+0x48>
    1326:	2204      	movs	r2, #4
    1328:	759a      	strb	r2, [r3, #22]
    132a:	e7ef      	b.n	130c <_usart_async_set_irq_state+0x48>
    132c:	2280      	movs	r2, #128	; 0x80
    132e:	751a      	strb	r2, [r3, #20]
    1330:	e7ec      	b.n	130c <_usart_async_set_irq_state+0x48>
    1332:	46c0      	nop			; (mov r8, r8)
    1334:	00001760 	.word	0x00001760
    1338:	00000aad 	.word	0x00000aad

0000133c <SERCOM0_Handler>:
    133c:	b510      	push	{r4, lr}
    133e:	4b02      	ldr	r3, [pc, #8]	; (1348 <SERCOM0_Handler+0xc>)
    1340:	6818      	ldr	r0, [r3, #0]
    1342:	4b02      	ldr	r3, [pc, #8]	; (134c <SERCOM0_Handler+0x10>)
    1344:	4798      	blx	r3
    1346:	bd10      	pop	{r4, pc}
    1348:	20000044 	.word	0x20000044
    134c:	0000103d 	.word	0x0000103d

00001350 <SERCOM3_Handler>:
    1350:	b510      	push	{r4, lr}
    1352:	4b02      	ldr	r3, [pc, #8]	; (135c <SERCOM3_Handler+0xc>)
    1354:	6858      	ldr	r0, [r3, #4]
    1356:	4b02      	ldr	r3, [pc, #8]	; (1360 <SERCOM3_Handler+0x10>)
    1358:	4798      	blx	r3
    135a:	bd10      	pop	{r4, pc}
    135c:	20000044 	.word	0x20000044
    1360:	0000103d 	.word	0x0000103d

00001364 <_sysctrl_init_sources>:
    1364:	4b0f      	ldr	r3, [pc, #60]	; (13a4 <_sysctrl_init_sources+0x40>)
    1366:	6a19      	ldr	r1, [r3, #32]
    1368:	0c09      	lsrs	r1, r1, #16
    136a:	6a1a      	ldr	r2, [r3, #32]
    136c:	0f92      	lsrs	r2, r2, #30
    136e:	0792      	lsls	r2, r2, #30
    1370:	0409      	lsls	r1, r1, #16
    1372:	480d      	ldr	r0, [pc, #52]	; (13a8 <_sysctrl_init_sources+0x44>)
    1374:	4001      	ands	r1, r0
    1376:	430a      	orrs	r2, r1
    1378:	490c      	ldr	r1, [pc, #48]	; (13ac <_sysctrl_init_sources+0x48>)
    137a:	430a      	orrs	r2, r1
    137c:	621a      	str	r2, [r3, #32]
    137e:	699a      	ldr	r2, [r3, #24]
    1380:	2102      	movs	r1, #2
    1382:	430a      	orrs	r2, r1
    1384:	619a      	str	r2, [r3, #24]
    1386:	7f1a      	ldrb	r2, [r3, #28]
    1388:	311d      	adds	r1, #29
    138a:	400a      	ands	r2, r1
    138c:	771a      	strb	r2, [r3, #28]
    138e:	4b05      	ldr	r3, [pc, #20]	; (13a4 <_sysctrl_init_sources+0x40>)
    1390:	68db      	ldr	r3, [r3, #12]
    1392:	071b      	lsls	r3, r3, #28
    1394:	d5fb      	bpl.n	138e <_sysctrl_init_sources+0x2a>
    1396:	4a03      	ldr	r2, [pc, #12]	; (13a4 <_sysctrl_init_sources+0x40>)
    1398:	6a13      	ldr	r3, [r2, #32]
    139a:	2180      	movs	r1, #128	; 0x80
    139c:	430b      	orrs	r3, r1
    139e:	6213      	str	r3, [r2, #32]
    13a0:	4770      	bx	lr
    13a2:	46c0      	nop			; (mov r8, r8)
    13a4:	40000800 	.word	0x40000800
    13a8:	0fff0000 	.word	0x0fff0000
    13ac:	00000302 	.word	0x00000302

000013b0 <_sysctrl_init_referenced_generators>:
    13b0:	4a02      	ldr	r2, [pc, #8]	; (13bc <_sysctrl_init_referenced_generators+0xc>)
    13b2:	6993      	ldr	r3, [r2, #24]
    13b4:	2102      	movs	r1, #2
    13b6:	438b      	bics	r3, r1
    13b8:	6193      	str	r3, [r2, #24]
    13ba:	4770      	bx	lr
    13bc:	40000800 	.word	0x40000800

000013c0 <tx_cb_serial_knx>:
#include <atmel_start.h>

static void tx_cb_serial_knx(const struct usart_async_descriptor *const io_descr)
{
	/* Transfer completed */
}
    13c0:	4770      	bx	lr

000013c2 <tx_cb_serial_bsm>:


static void tx_cb_serial_bsm(const struct usart_async_descriptor *const io_descr)
{
	/* Transfer completed */
}
    13c2:	4770      	bx	lr

000013c4 <TIMER_task1_cb>:
 * Example of using TIMER.
 */
static void TIMER_task1_cb(const struct timer_task *const timer_task)
{
	//gpio_toggle_pin_level(myLed);
}
    13c4:	4770      	bx	lr

000013c6 <TIMER_task2_cb>:

static void TIMER_task2_cb(const struct timer_task *const timer_task)
{
}
    13c6:	4770      	bx	lr

000013c8 <rx_cb_serial_knx>:
{
    13c8:	b510      	push	{r4, lr}
    13ca:	b082      	sub	sp, #8
	count = io_read(&serial_knx.io, &ch, 1);
    13cc:	466b      	mov	r3, sp
    13ce:	1ddc      	adds	r4, r3, #7
    13d0:	2201      	movs	r2, #1
    13d2:	0021      	movs	r1, r4
    13d4:	4809      	ldr	r0, [pc, #36]	; (13fc <rx_cb_serial_knx+0x34>)
    13d6:	4b0a      	ldr	r3, [pc, #40]	; (1400 <rx_cb_serial_knx+0x38>)
    13d8:	4798      	blx	r3
	knx_testArray[knx_ptr] = ch;
    13da:	4a0a      	ldr	r2, [pc, #40]	; (1404 <rx_cb_serial_knx+0x3c>)
    13dc:	7813      	ldrb	r3, [r2, #0]
    13de:	18d1      	adds	r1, r2, r3
    13e0:	7820      	ldrb	r0, [r4, #0]
    13e2:	7108      	strb	r0, [r1, #4]
	knx_ptr++;
    13e4:	3301      	adds	r3, #1
    13e6:	b2db      	uxtb	r3, r3
    13e8:	7013      	strb	r3, [r2, #0]
	if (knx_ptr == 9)
    13ea:	2b09      	cmp	r3, #9
    13ec:	d001      	beq.n	13f2 <rx_cb_serial_knx+0x2a>
}
    13ee:	b002      	add	sp, #8
    13f0:	bd10      	pop	{r4, pc}
		knx_ptr = 0;
    13f2:	2200      	movs	r2, #0
    13f4:	4b03      	ldr	r3, [pc, #12]	; (1404 <rx_cb_serial_knx+0x3c>)
    13f6:	701a      	strb	r2, [r3, #0]
}
    13f8:	e7f9      	b.n	13ee <rx_cb_serial_knx+0x26>
    13fa:	46c0      	nop			; (mov r8, r8)
    13fc:	20000218 	.word	0x20000218
    1400:	000005ad 	.word	0x000005ad
    1404:	2000004c 	.word	0x2000004c

00001408 <rx_cb_serial_bsm>:
{
    1408:	b510      	push	{r4, lr}
    140a:	b082      	sub	sp, #8
	count = io_read(&serial_bsm.io, &ch, 1);
    140c:	466b      	mov	r3, sp
    140e:	1ddc      	adds	r4, r3, #7
    1410:	2201      	movs	r2, #1
    1412:	0021      	movs	r1, r4
    1414:	4809      	ldr	r0, [pc, #36]	; (143c <rx_cb_serial_bsm+0x34>)
    1416:	4b0a      	ldr	r3, [pc, #40]	; (1440 <rx_cb_serial_bsm+0x38>)
    1418:	4798      	blx	r3
	testArray[ptr] = ch;
    141a:	4a0a      	ldr	r2, [pc, #40]	; (1444 <rx_cb_serial_bsm+0x3c>)
    141c:	7b53      	ldrb	r3, [r2, #13]
    141e:	18d1      	adds	r1, r2, r3
    1420:	7820      	ldrb	r0, [r4, #0]
    1422:	7408      	strb	r0, [r1, #16]
	ptr++;
    1424:	3301      	adds	r3, #1
    1426:	b2db      	uxtb	r3, r3
    1428:	7353      	strb	r3, [r2, #13]
	if (ptr == 9)
    142a:	2b09      	cmp	r3, #9
    142c:	d001      	beq.n	1432 <rx_cb_serial_bsm+0x2a>
}
    142e:	b002      	add	sp, #8
    1430:	bd10      	pop	{r4, pc}
		ptr = 0;
    1432:	2200      	movs	r2, #0
    1434:	4b03      	ldr	r3, [pc, #12]	; (1444 <rx_cb_serial_bsm+0x3c>)
    1436:	735a      	strb	r2, [r3, #13]
}
    1438:	e7f9      	b.n	142e <rx_cb_serial_bsm+0x26>
    143a:	46c0      	nop			; (mov r8, r8)
    143c:	200001c8 	.word	0x200001c8
    1440:	000005ad 	.word	0x000005ad
    1444:	2000004c 	.word	0x2000004c

00001448 <serial_knx_Init>:
{
    1448:	b530      	push	{r4, r5, lr}
    144a:	b083      	sub	sp, #12
	usart_async_register_callback(&serial_knx, USART_ASYNC_TXC_CB, tx_cb_serial_knx);
    144c:	4c09      	ldr	r4, [pc, #36]	; (1474 <serial_knx_Init+0x2c>)
    144e:	4a0a      	ldr	r2, [pc, #40]	; (1478 <serial_knx_Init+0x30>)
    1450:	2101      	movs	r1, #1
    1452:	0020      	movs	r0, r4
    1454:	4d09      	ldr	r5, [pc, #36]	; (147c <serial_knx_Init+0x34>)
    1456:	47a8      	blx	r5
	usart_async_register_callback(&serial_knx, USART_ASYNC_RXC_CB, rx_cb_serial_knx);
    1458:	4a09      	ldr	r2, [pc, #36]	; (1480 <serial_knx_Init+0x38>)
    145a:	2100      	movs	r1, #0
    145c:	0020      	movs	r0, r4
    145e:	47a8      	blx	r5
	usart_async_get_io_descriptor(&serial_knx, &io);
    1460:	a901      	add	r1, sp, #4
    1462:	0020      	movs	r0, r4
    1464:	4b07      	ldr	r3, [pc, #28]	; (1484 <serial_knx_Init+0x3c>)
    1466:	4798      	blx	r3
	usart_async_enable(&serial_knx);
    1468:	0020      	movs	r0, r4
    146a:	4b07      	ldr	r3, [pc, #28]	; (1488 <serial_knx_Init+0x40>)
    146c:	4798      	blx	r3
}
    146e:	b003      	add	sp, #12
    1470:	bd30      	pop	{r4, r5, pc}
    1472:	46c0      	nop			; (mov r8, r8)
    1474:	20000218 	.word	0x20000218
    1478:	000013c1 	.word	0x000013c1
    147c:	00000a35 	.word	0x00000a35
    1480:	000013c9 	.word	0x000013c9
    1484:	00000a05 	.word	0x00000a05
    1488:	000009d9 	.word	0x000009d9

0000148c <serial_bsm_Init>:
{
    148c:	b530      	push	{r4, r5, lr}
    148e:	b083      	sub	sp, #12
	usart_async_register_callback(&serial_bsm, USART_ASYNC_TXC_CB, tx_cb_serial_bsm);
    1490:	4c09      	ldr	r4, [pc, #36]	; (14b8 <serial_bsm_Init+0x2c>)
    1492:	4a0a      	ldr	r2, [pc, #40]	; (14bc <serial_bsm_Init+0x30>)
    1494:	2101      	movs	r1, #1
    1496:	0020      	movs	r0, r4
    1498:	4d09      	ldr	r5, [pc, #36]	; (14c0 <serial_bsm_Init+0x34>)
    149a:	47a8      	blx	r5
	usart_async_register_callback(&serial_bsm, USART_ASYNC_RXC_CB, rx_cb_serial_bsm);
    149c:	4a09      	ldr	r2, [pc, #36]	; (14c4 <serial_bsm_Init+0x38>)
    149e:	2100      	movs	r1, #0
    14a0:	0020      	movs	r0, r4
    14a2:	47a8      	blx	r5
	usart_async_get_io_descriptor(&serial_bsm, &io);
    14a4:	a901      	add	r1, sp, #4
    14a6:	0020      	movs	r0, r4
    14a8:	4b07      	ldr	r3, [pc, #28]	; (14c8 <serial_bsm_Init+0x3c>)
    14aa:	4798      	blx	r3
	usart_async_enable(&serial_bsm);
    14ac:	0020      	movs	r0, r4
    14ae:	4b07      	ldr	r3, [pc, #28]	; (14cc <serial_bsm_Init+0x40>)
    14b0:	4798      	blx	r3
}
    14b2:	b003      	add	sp, #12
    14b4:	bd30      	pop	{r4, r5, pc}
    14b6:	46c0      	nop			; (mov r8, r8)
    14b8:	200001c8 	.word	0x200001c8
    14bc:	000013c3 	.word	0x000013c3
    14c0:	00000a35 	.word	0x00000a35
    14c4:	00001409 	.word	0x00001409
    14c8:	00000a05 	.word	0x00000a05
    14cc:	000009d9 	.word	0x000009d9

000014d0 <TIMER_Init>:

void TIMER_Init(void)
{
    14d0:	b570      	push	{r4, r5, r6, lr}
	TIMER_task1.interval = 100;
    14d2:	490d      	ldr	r1, [pc, #52]	; (1508 <TIMER_Init+0x38>)
    14d4:	2364      	movs	r3, #100	; 0x64
    14d6:	624b      	str	r3, [r1, #36]	; 0x24
	TIMER_task1.cb       = TIMER_task1_cb;
    14d8:	4b0c      	ldr	r3, [pc, #48]	; (150c <TIMER_Init+0x3c>)
    14da:	628b      	str	r3, [r1, #40]	; 0x28
	TIMER_task1.mode     = TIMER_TASK_REPEAT;
    14dc:	2301      	movs	r3, #1
    14de:	222c      	movs	r2, #44	; 0x2c
    14e0:	548b      	strb	r3, [r1, r2]
	TIMER_task2.interval = 200;
    14e2:	329c      	adds	r2, #156	; 0x9c
    14e4:	638a      	str	r2, [r1, #56]	; 0x38
	TIMER_task2.cb       = TIMER_task2_cb;
    14e6:	4a0a      	ldr	r2, [pc, #40]	; (1510 <TIMER_Init+0x40>)
    14e8:	63ca      	str	r2, [r1, #60]	; 0x3c
	TIMER_task2.mode     = TIMER_TASK_REPEAT;
    14ea:	000e      	movs	r6, r1
    14ec:	3630      	adds	r6, #48	; 0x30
    14ee:	7433      	strb	r3, [r6, #16]

	timer_add_task(&TIMER, &TIMER_task1);
    14f0:	311c      	adds	r1, #28
    14f2:	4c08      	ldr	r4, [pc, #32]	; (1514 <TIMER_Init+0x44>)
    14f4:	0020      	movs	r0, r4
    14f6:	4d08      	ldr	r5, [pc, #32]	; (1518 <TIMER_Init+0x48>)
    14f8:	47a8      	blx	r5
	timer_add_task(&TIMER, &TIMER_task2);
    14fa:	0031      	movs	r1, r6
    14fc:	0020      	movs	r0, r4
    14fe:	47a8      	blx	r5
	timer_start(&TIMER);
    1500:	0020      	movs	r0, r4
    1502:	4b06      	ldr	r3, [pc, #24]	; (151c <TIMER_Init+0x4c>)
    1504:	4798      	blx	r3
}
    1506:	bd70      	pop	{r4, r5, r6, pc}
    1508:	2000004c 	.word	0x2000004c
    150c:	000013c5 	.word	0x000013c5
    1510:	000013c7 	.word	0x000013c7
    1514:	20000190 	.word	0x20000190
    1518:	00000721 	.word	0x00000721
    151c:	000006e5 	.word	0x000006e5

00001520 <FLASH_example>:
static uint8_t src_data[128];
static uint8_t chk_data[128];


void FLASH_example(void)
{
    1520:	b5f0      	push	{r4, r5, r6, r7, lr}
    1522:	b083      	sub	sp, #12
	uint32_t page_size;
	uint16_t i;

	/* Init source data */
	page_size = flash_get_page_size(&FLASH);
    1524:	4818      	ldr	r0, [pc, #96]	; (1588 <FLASH_example+0x68>)
    1526:	4b19      	ldr	r3, [pc, #100]	; (158c <FLASH_example+0x6c>)
    1528:	4798      	blx	r3

	for (i = 0; i < 128; i++) {
    152a:	2300      	movs	r3, #0
    152c:	e006      	b.n	153c <FLASH_example+0x1c>
		src_data[i] = 0xaa;
    152e:	4a18      	ldr	r2, [pc, #96]	; (1590 <FLASH_example+0x70>)
    1530:	18d2      	adds	r2, r2, r3
    1532:	20aa      	movs	r0, #170	; 0xaa
    1534:	2144      	movs	r1, #68	; 0x44
    1536:	5450      	strb	r0, [r2, r1]
	for (i = 0; i < 128; i++) {
    1538:	3301      	adds	r3, #1
    153a:	b29b      	uxth	r3, r3
    153c:	2b7f      	cmp	r3, #127	; 0x7f
    153e:	d9f6      	bls.n	152e <FLASH_example+0xe>
	}
	//src_data[0]=0x17;

	/* Write data to flash */
	flash_write(&FLASH, 0x3200, src_data, 128);
    1540:	4c11      	ldr	r4, [pc, #68]	; (1588 <FLASH_example+0x68>)
    1542:	2380      	movs	r3, #128	; 0x80
    1544:	4a12      	ldr	r2, [pc, #72]	; (1590 <FLASH_example+0x70>)
    1546:	3244      	adds	r2, #68	; 0x44
    1548:	21c8      	movs	r1, #200	; 0xc8
    154a:	0189      	lsls	r1, r1, #6
    154c:	0020      	movs	r0, r4
    154e:	4d11      	ldr	r5, [pc, #68]	; (1594 <FLASH_example+0x74>)
    1550:	47a8      	blx	r5
	
	uint8_t dum[4] = {0x17, 0x52, 0x98, 0x13};
    1552:	ae01      	add	r6, sp, #4
    1554:	4b10      	ldr	r3, [pc, #64]	; (1598 <FLASH_example+0x78>)
    1556:	681b      	ldr	r3, [r3, #0]
    1558:	9301      	str	r3, [sp, #4]
	flash_write(&FLASH, 0x3201, dum, 4);
    155a:	4f10      	ldr	r7, [pc, #64]	; (159c <FLASH_example+0x7c>)
    155c:	2304      	movs	r3, #4
    155e:	0032      	movs	r2, r6
    1560:	0039      	movs	r1, r7
    1562:	0020      	movs	r0, r4
    1564:	47a8      	blx	r5
	dum[3] = 0x33;
    1566:	2333      	movs	r3, #51	; 0x33
    1568:	70f3      	strb	r3, [r6, #3]
	flash_write(&FLASH, 0x3201, dum, 4);
    156a:	3b2f      	subs	r3, #47	; 0x2f
    156c:	0032      	movs	r2, r6
    156e:	0039      	movs	r1, r7
    1570:	0020      	movs	r0, r4
    1572:	47a8      	blx	r5
	
	
	/* Read data from flash */
	flash_read(&FLASH, 0x3200, chk_data, 128);
    1574:	2380      	movs	r3, #128	; 0x80
    1576:	4a0a      	ldr	r2, [pc, #40]	; (15a0 <FLASH_example+0x80>)
    1578:	3244      	adds	r2, #68	; 0x44
    157a:	21c8      	movs	r1, #200	; 0xc8
    157c:	0189      	lsls	r1, r1, #6
    157e:	0020      	movs	r0, r4
    1580:	4c08      	ldr	r4, [pc, #32]	; (15a4 <FLASH_example+0x84>)
    1582:	47a0      	blx	r4
}
    1584:	b003      	add	sp, #12
    1586:	bdf0      	pop	{r4, r5, r6, r7, pc}
    1588:	200001ac 	.word	0x200001ac
    158c:	00000585 	.word	0x00000585
    1590:	2000004c 	.word	0x2000004c
    1594:	000004ed 	.word	0x000004ed
    1598:	0000177c 	.word	0x0000177c
    159c:	00003201 	.word	0x00003201
    15a0:	200000cc 	.word	0x200000cc
    15a4:	0000046d 	.word	0x0000046d

000015a8 <main>:

int main(void)
{
    15a8:	b510      	push	{r4, lr}
	/* Initializes MCU, drivers and middleware */
	atmel_start_init();
    15aa:	4b05      	ldr	r3, [pc, #20]	; (15c0 <main+0x18>)
    15ac:	4798      	blx	r3
	serial_knx_Init();
    15ae:	4b05      	ldr	r3, [pc, #20]	; (15c4 <main+0x1c>)
    15b0:	4798      	blx	r3
	serial_bsm_Init();
    15b2:	4b05      	ldr	r3, [pc, #20]	; (15c8 <main+0x20>)
    15b4:	4798      	blx	r3
	TIMER_Init();
    15b6:	4b05      	ldr	r3, [pc, #20]	; (15cc <main+0x24>)
    15b8:	4798      	blx	r3
	FLASH_example();
    15ba:	4b05      	ldr	r3, [pc, #20]	; (15d0 <main+0x28>)
    15bc:	4798      	blx	r3
    15be:	e7fe      	b.n	15be <main+0x16>
    15c0:	00000115 	.word	0x00000115
    15c4:	00001449 	.word	0x00001449
    15c8:	0000148d 	.word	0x0000148d
    15cc:	000014d1 	.word	0x000014d1
    15d0:	00001521 	.word	0x00001521

000015d4 <__libc_init_array>:
    15d4:	b570      	push	{r4, r5, r6, lr}
    15d6:	2600      	movs	r6, #0
    15d8:	4d0c      	ldr	r5, [pc, #48]	; (160c <__libc_init_array+0x38>)
    15da:	4c0d      	ldr	r4, [pc, #52]	; (1610 <__libc_init_array+0x3c>)
    15dc:	1b64      	subs	r4, r4, r5
    15de:	10a4      	asrs	r4, r4, #2
    15e0:	42a6      	cmp	r6, r4
    15e2:	d109      	bne.n	15f8 <__libc_init_array+0x24>
    15e4:	2600      	movs	r6, #0
    15e6:	f000 f8cb 	bl	1780 <_init>
    15ea:	4d0a      	ldr	r5, [pc, #40]	; (1614 <__libc_init_array+0x40>)
    15ec:	4c0a      	ldr	r4, [pc, #40]	; (1618 <__libc_init_array+0x44>)
    15ee:	1b64      	subs	r4, r4, r5
    15f0:	10a4      	asrs	r4, r4, #2
    15f2:	42a6      	cmp	r6, r4
    15f4:	d105      	bne.n	1602 <__libc_init_array+0x2e>
    15f6:	bd70      	pop	{r4, r5, r6, pc}
    15f8:	00b3      	lsls	r3, r6, #2
    15fa:	58eb      	ldr	r3, [r5, r3]
    15fc:	4798      	blx	r3
    15fe:	3601      	adds	r6, #1
    1600:	e7ee      	b.n	15e0 <__libc_init_array+0xc>
    1602:	00b3      	lsls	r3, r6, #2
    1604:	58eb      	ldr	r3, [r5, r3]
    1606:	4798      	blx	r3
    1608:	3601      	adds	r6, #1
    160a:	e7f2      	b.n	15f2 <__libc_init_array+0x1e>
    160c:	0000178c 	.word	0x0000178c
    1610:	0000178c 	.word	0x0000178c
    1614:	0000178c 	.word	0x0000178c
    1618:	00001790 	.word	0x00001790
    161c:	682f2e2e 	.word	0x682f2e2e
    1620:	732f6c61 	.word	0x732f6c61
    1624:	682f6372 	.word	0x682f6372
    1628:	665f6c61 	.word	0x665f6c61
    162c:	6873616c 	.word	0x6873616c
    1630:	0000632e 	.word	0x0000632e
    1634:	682f2e2e 	.word	0x682f2e2e
    1638:	732f6c61 	.word	0x732f6c61
    163c:	682f6372 	.word	0x682f6372
    1640:	695f6c61 	.word	0x695f6c61
    1644:	00632e6f 	.word	0x00632e6f
    1648:	682f2e2e 	.word	0x682f2e2e
    164c:	732f6c61 	.word	0x732f6c61
    1650:	682f6372 	.word	0x682f6372
    1654:	745f6c61 	.word	0x745f6c61
    1658:	72656d69 	.word	0x72656d69
    165c:	0000632e 	.word	0x0000632e
    1660:	682f2e2e 	.word	0x682f2e2e
    1664:	732f6c61 	.word	0x732f6c61
    1668:	682f6372 	.word	0x682f6372
    166c:	755f6c61 	.word	0x755f6c61
    1670:	74726173 	.word	0x74726173
    1674:	7973615f 	.word	0x7973615f
    1678:	632e636e 	.word	0x632e636e
    167c:	00000000 	.word	0x00000000
    1680:	682f2e2e 	.word	0x682f2e2e
    1684:	752f6c61 	.word	0x752f6c61
    1688:	736c6974 	.word	0x736c6974
    168c:	6372732f 	.word	0x6372732f
    1690:	6974752f 	.word	0x6974752f
    1694:	6c5f736c 	.word	0x6c5f736c
    1698:	2e747369 	.word	0x2e747369
    169c:	00000063 	.word	0x00000063
    16a0:	682f2e2e 	.word	0x682f2e2e
    16a4:	752f6c61 	.word	0x752f6c61
    16a8:	736c6974 	.word	0x736c6974
    16ac:	6372732f 	.word	0x6372732f
    16b0:	6974752f 	.word	0x6974752f
    16b4:	725f736c 	.word	0x725f736c
    16b8:	62676e69 	.word	0x62676e69
    16bc:	65666675 	.word	0x65666675
    16c0:	00632e72 	.word	0x00632e72
    16c4:	682f2e2e 	.word	0x682f2e2e
    16c8:	6e2f6c70 	.word	0x6e2f6c70
    16cc:	74636d76 	.word	0x74636d76
    16d0:	682f6c72 	.word	0x682f6c72
    16d4:	6e5f6c70 	.word	0x6e5f6c70
    16d8:	74636d76 	.word	0x74636d76
    16dc:	632e6c72 	.word	0x632e6c72
    16e0:	00000000 	.word	0x00000000
    16e4:	682f2e2e 	.word	0x682f2e2e
    16e8:	722f6c70 	.word	0x722f6c70
    16ec:	682f6374 	.word	0x682f6374
    16f0:	725f6c70 	.word	0x725f6c70
    16f4:	632e6374 	.word	0x632e6374
    16f8:	00000000 	.word	0x00000000

000016fc <_usarts>:
    16fc:	00000000 41100004 00030000 0000d8ad     .......A........
    170c:	00000000 00000003 40100004 00030000     ...........@....
    171c:	0000d8ad 00000000                       ........

00001724 <_i2cms>:
	...

0000173c <_i2css>:
	...

0000174c <sercomspi_regs>:
	...
    1760:	682f2e2e 732f6c70 6f637265 70682f6d     ../hpl/sercom/hp
    1770:	65735f6c 6d6f6372 0000632e 13985217     l_sercom.c...R..

00001780 <_init>:
    1780:	b5f8      	push	{r3, r4, r5, r6, r7, lr}
    1782:	46c0      	nop			; (mov r8, r8)
    1784:	bcf8      	pop	{r3, r4, r5, r6, r7}
    1786:	bc08      	pop	{r3}
    1788:	469e      	mov	lr, r3
    178a:	4770      	bx	lr

0000178c <__init_array_start>:
    178c:	000000dd 	.word	0x000000dd

00001790 <_fini>:
    1790:	b5f8      	push	{r3, r4, r5, r6, r7, lr}
    1792:	46c0      	nop			; (mov r8, r8)
    1794:	bcf8      	pop	{r3, r4, r5, r6, r7}
    1796:	bc08      	pop	{r3}
    1798:	469e      	mov	lr, r3
    179a:	4770      	bx	lr

0000179c <__fini_array_start>:
    179c:	000000b5 	.word	0x000000b5
